ccollections
OrderedDict
p1
((lp2
(lp3
S'eos'
p4
aI0
aa(lp5
S'UNK'
p6
aI1
aa(lp7
S','
aI2
aa(lp8
S'and'
p9
aI3
aa(lp10
S'the'
p11
aI4
aa(lp12
S'to'
p13
aI5
aa(lp14
S'of'
p15
aI6
aa(lp16
S'my'
p17
aI7
aa(lp18
S'i'
aI8
aa(lp19
S'in'
p20
aI9
aa(lp21
S'that'
p22
aI10
aa(lp23
S'thy'
p24
aI11
aa(lp25
S'thou'
p26
aI12
aa(lp27
S"'s"
p28
aI13
aa(lp29
S'love'
p30
aI14
aa(lp31
S'with'
p32
aI15
aa(lp33
S'for'
p34
aI16
aa(lp35
S'is'
p36
aI17
aa(lp37
S'not'
p38
aI18
aa(lp39
S"'d"
p40
aI19
aa(lp41
S'me'
p42
aI20
aa(lp43
S'a'
aI21
aa(lp44
S'but'
p45
aI22
aa(lp46
S'thee'
p47
aI23
aa(lp48
S''
aI24
aa(lp49
S'so'
p50
aI25
aa(lp51
S'be'
p52
aI26
aa(lp53
S'as'
p54
aI27
aa(lp55
S'all'
p56
aI28
aa(lp57
S'his'
p58
aI29
aa(lp59
S'you'
p60
aI30
aa(lp61
S'which'
p62
aI31
aa(lp63
S'when'
p64
aI32
aa(lp65
S'it'
p66
aI33
aa(lp67
S'?'
aI34
aa(lp68
S'this'
p69
aI35
aa(lp70
S'by'
p71
aI36
aa(lp72
S'doth'
p73
aI37
aa(lp74
S'your'
p75
aI38
aa(lp76
S'from'
p77
aI39
aa(lp78
S'do'
p79
aI40
aa(lp80
S'on'
p81
aI41
aa(lp82
S'or'
p83
aI42
aa(lp84
S'no'
p85
aI43
aa(lp86
S'have'
p87
aI44
aa(lp88
S'then'
p89
aI45
aa(lp90
S'what'
p91
aI46
aa(lp92
S'beauty'
p93
aI47
aa(lp94
S'are'
p95
aI48
aa(lp96
S'if'
p97
aI49
aa(lp98
S'time'
p99
aI50
aa(lp100
S'more'
p101
aI51
aa(lp102
S'mine'
p103
aI52
aa(lp104
S'their'
p105
aI53
aa(lp106
S'!'
aI54
aa(lp107
S'shall'
p108
aI55
aa(lp109
S'heart'
p110
aI56
aa(lp111
S'sweet'
p112
aI57
aa(lp113
S'will'
p114
aI58
aa(lp115
S'they'
p116
aI59
aa(lp117
S'eyes'
p118
aI60
aa(lp119
S'nor'
p120
aI61
aa(lp121
S'art'
p122
aI62
aa(lp123
S'her'
p124
aI63
aa(lp125
S'yet'
p126
aI64
aa(lp127
S'o'
aI65
aa(lp128
S'than'
p129
aI66
aa(lp130
S'can'
p131
aI67
aa(lp132
S'now'
p133
aI68
aa(lp134
S'thine'
p135
aI69
aa(lp136
S'should'
p137
aI70
aa(lp138
S'make'
p139
aI71
aa(lp140
S'he'
p141
aI72
aa(lp142
S'one'
p143
aI73
aa(lp144
S'hath'
p145
aI74
aa(lp146
S'still'
p147
aI75
aa(lp148
S'where'
p149
aI76
aa(lp150
S'eye'
p151
aI77
aa(lp152
S'fair'
p153
aI78
aa(lp154
S'how'
p155
aI79
aa(lp156
S'him'
p157
aI80
aa(lp158
S'like'
p159
aI81
aa(lp160
S'true'
p161
aI82
aa(lp162
S'see'
p163
aI83
aa(lp164
S'am'
p165
aI84
aa(lp166
S'she'
p167
aI85
aa(lp168
S'world'
p169
aI86
aa(lp170
S'those'
p171
aI87
aa(lp172
S'though'
p173
aI88
aa(lp174
S"'st"
p175
aI89
aa(lp176
S'being'
p177
aI90
aa(lp178
S'some'
p179
aI91
aa(lp180
S'such'
p181
aI92
aa(lp182
S'were'
p183
aI93
aa(lp184
S'every'
p185
aI94
aa(lp186
S'own'
p187
aI95
aa(lp188
S'who'
p189
aI96
aa(lp190
S'dost'
p191
aI97
aa(lp192
S'live'
p193
aI98
aa(lp194
S'may'
p195
aI99
aa(lp196
S'upon'
p197
aI100
aa(lp198
S'was'
p199
aI101
aa(lp200
S'day'
p201
aI102
aa(lp202
S'myself'
p203
aI103
aa(lp204
S'praise'
p205
aI104
aa(lp206
S'say'
p207
aI105
aa(lp208
S'new'
p209
aI106
aa(lp210
S'give'
p211
aI107
aa(lp212
S'might'
p213
aI108
aa(lp214
S'did'
p215
aI109
aa(lp216
S'most'
p217
aI110
aa(lp218
S'let'
p219
aI111
aa(lp220
S'well'
p221
aI112
aa(lp222
S'at'
p223
aI113
aa(lp224
S'look'
p225
aI114
aa(lp226
S'why'
p227
aI115
aa(lp228
S'since'
p229
aI116
aa(lp230
S'life'
p231
aI117
aa(lp232
S'show'
p233
aI118
aa(lp234
S'truth'
p235
aI119
aa(lp236
S'even'
p237
aI120
aa(lp238
S'thyself'
p239
aI121
aa(lp240
S'old'
p241
aI122
aa(lp242
S'best'
p243
aI123
aa(lp244
S'dear'
p245
aI124
aa(lp246
S'must'
p247
aI125
aa(lp248
S'would'
p249
aI126
aa(lp250
S'night'
p251
aI127
aa(lp252
S'thus'
p253
aI128
aa(lp254
S'part'
p255
aI129
aa(lp256
S'death'
p257
aI130
aa(lp258
S'ill'
p259
aI131
aa(lp260
S'these'
p261
aI132
aa(lp262
S'better'
p263
aI133
aa(lp264
S'know'
p265
aI134
aa(lp266
S'worth'
p267
aI135
aa(lp268
S'up'
p269
aI136
aa(lp270
S'alone'
p271
aI137
aa(lp272
S'summer'
p273
aI138
aa(lp274
S'there'
p275
aI139
aa(lp276
S'made'
p277
aI140
aa(lp278
S'heaven'
p279
aI141
aa(lp280
S'nothing'
p281
aI142
aa(lp282
S'men'
p283
aI143
aa(lp284
S'age'
p285
aI144
aa(lp286
S'false'
p287
aI145
aa(lp288
S'whose'
p289
aI146
aa(lp290
S'self'
p291
aI147
aa(lp292
S'face'
p293
aI148
aa(lp294
S'against'
p295
aI149
aa(lp296
S'much'
p297
aI150
aa(lp298
S'thought'
p299
aI151
aa(lp300
S'too'
p301
aI152
aa(lp302
S'hand'
p303
aI153
aa(lp304
S'thoughts'
p305
aI154
aa(lp306
S'them'
p307
aI155
aa(lp308
S'our'
p309
aI156
aa(lp310
S'away'
p311
aI157
aa(lp312
S'days'
p313
aI158
aa(lp314
S'out'
p315
aI159
aa(lp316
S'name'
p317
aI160
aa(lp318
S'sight'
p319
aI161
aa(lp320
S'an'
p321
aI162
aa(lp322
S'therefore'
p323
aI163
aa(lp324
S'both'
p325
aI164
aa(lp326
S'mind'
p327
aI165
aa(lp328
S"'"
aI166
aa(lp329
S'hast'
p330
aI167
aa(lp331
S'other'
p332
aI168
aa(lp333
S'friend'
p334
aI169
aa(lp335
S'nature'
p336
aI170
aa(lp337
S'far'
p338
aI171
aa(lp339
S'tongue'
p340
aI172
aa(lp341
S'muse'
p342
aI173
aa(lp343
S'find'
p344
aI174
aa(lp345
S'never'
p346
aI175
aa(lp347
S'dead'
p348
aI176
aa(lp349
S'had'
p350
aI177
aa(lp351
S'each'
p352
aI178
aa(lp353
S'tell'
p354
aI179
aa(lp355
S'think'
p356
aI180
aa(lp357
S'poor'
p358
aI181
aa(lp359
S'we'
p360
aI182
aa(lp361
S'come'
p362
aI183
aa(lp363
S'good'
p364
aI184
aa(lp365
S'youth'
p366
aI185
aa(lp367
S'verse'
p368
aI186
aa(lp369
S'seem'
p370
aI187
aa(lp371
S'hate'
p372
aI188
aa(lp373
S'till'
p374
aI189
aa(lp375
S'things'
p376
aI190
aa(lp377
S'wilt'
p378
aI191
aa(lp379
S'many'
p380
aI192
aa(lp381
S'gentle'
p382
aI193
aa(lp383
S'looks'
p384
aI194
aa(lp385
S'proud'
p386
aI195
aa(lp387
S'before'
p388
aI196
aa(lp389
S'another'
p390
aI197
aa(lp391
S'lie'
p392
aI198
aa(lp393
S'take'
p394
aI199
aa(lp395
S'black'
p396
aI200
aa(lp397
S'bear'
p398
aI201
aa(lp399
S'state'
p400
aI202
aa(lp401
S'hold'
p402
aI203
aa(lp403
S'first'
p404
aI204
aa(lp405
S'prove'
p406
aI205
aa(lp407
S'whilst'
p408
aI206
aa(lp409
S'none'
p410
aI207
aa(lp411
S'use'
p412
aI208
aa(lp413
S'ever'
p414
aI209
aa(lp415
S'mayst'
p416
aI210
aa(lp417
S'full'
p418
aI211
aa(lp419
S'kind'
p420
aI212
aa(lp421
S'die'
p422
aI213
aa(lp423
S'hours'
p424
aI214
aa(lp425
S'call'
p426
aI215
aa(lp427
S'woe'
p428
aI216
aa(lp429
S'making'
p430
aI217
aa(lp431
S'lies'
p432
aI218
aa(lp433
S'soul'
p434
aI219
aa(lp435
S'yourself'
p436
aI220
aa(lp437
S'whom'
p438
aI221
aa(lp439
S'long'
p440
aI222
aa(lp441
S'sun'
p442
aI223
aa(lp443
S'bright'
p444
aI224
aa(lp445
S"o'er"
p446
aI225
aa(lp447
S'thing'
p448
aI226
aa(lp449
S'form'
p450
aI227
aa(lp451
S'change'
p452
aI228
aa(lp453
S'grace'
p454
aI229
aa(lp455
S'seen'
p456
aI230
aa(lp457
S'pride'
p458
aI231
aa(lp459
S'shalt'
p460
aI232
aa(lp461
S'knows'
p462
aI233
aa(lp463
S'desire'
p464
aI234
aa(lp465
S'pleasure'
p466
aI235
aa(lp467
S'happy'
p468
aI236
aa(lp469
S'after'
p470
aI237
aa(lp471
S'any'
p472
aI238
aa(lp473
S"'tis"
p474
aI239
aa(lp475
S'earth'
p476
aI240
aa(lp477
S'within'
p478
aI241
aa(lp479
S'end'
p480
aI242
aa(lp481
S'others'
p482
aI243
aa(lp483
S'rich'
p484
aI244
aa(lp485
S'shame'
p486
aI245
aa(lp487
S'again'
p488
aI246
aa(lp489
S'glass'
p490
aI247
aa(lp491
S'fire'
p492
aI248
aa(lp493
S'strong'
p494
aI249
aa(lp495
S'right'
p496
aI250
aa(lp497
S'once'
p498
aI251
aa(lp499
S'write'
p500
aI252
aa(lp501
S'could'
p502
aI253
aa(lp503
S'loving'
p504
aI254
aa(lp505
S'words'
p506
aI255
aa(lp507
S'place'
p508
aI256
aa(lp509
S'found'
p510
aI257
aa(lp511
S'keep'
p512
aI258
aa(lp513
S'leave'
p514
aI259
aa(lp515
S'pen'
p516
aI260
aa(lp517
S'great'
p518
aI261
aa(lp519
S'deeds'
p520
aI262
aa(lp521
S'spirit'
p522
aI263
aa(lp523
S'fortune'
p524
aI264
aa(lp525
S'power'
p526
aI265
aa(lp527
S'pity'
p528
aI266
aa(lp529
S'store'
p530
aI267
aa(lp531
S'decay'
p532
aI268
aa(lp533
S'makes'
p534
aI269
aa(lp535
S'times'
p536
aI270
aa(lp537
S'lives'
p538
aI271
aa(lp539
S'gone'
p540
aI272
aa(lp541
S'loss'
p542
aI273
aa(lp543
S'beauteous'
p544
aI274
aa(lp545
S'without'
p546
aI275
aa(lp547
S'cannot'
p548
aI276
aa(lp549
S'two'
p550
aI277
aa(lp551
S'although'
p552
aI278
aa(lp553
S'lose'
p554
aI279
aa(lp555
S'past'
p556
aI280
aa(lp557
S'treasure'
p558
aI281
aa(lp559
S'grow'
p560
aI282
aa(lp561
S'back'
p562
aI283
aa(lp563
S'thence'
p564
aI284
aa(lp565
S'speak'
p566
aI285
aa(lp567
S'view'
p568
aI286
aa(lp569
S'disgrace'
p570
aI287
aa(lp571
S'shadow'
p572
aI288
aa(lp573
S'glory'
p574
aI289
aa(lp575
S'lest'
p576
aI290
aa(lp577
S'sin'
p578
aI291
aa(lp579
S'born'
p580
aI292
aa(lp581
S'stay'
p582
aI293
aa(lp583
S'faults'
p584
aI294
aa(lp585
S'hell'
p586
aI295
aa(lp587
S'bring'
p588
aI296
aa(lp589
S'delight'
p590
aI297
aa(lp591
S'loves'
p592
aI298
aa(lp593
S'put'
p594
aI299
aa(lp595
S'sake'
p596
aI300
aa(lp597
S'fear'
p598
aI301
aa(lp599
S'deep'
p600
aI302
aa(lp601
S'stand'
p602
aI303
aa(lp603
S'cruel'
p604
aI304
aa(lp605
S'light'
p606
aI305
aa(lp607
S'tender'
p608
aI306
aa(lp609
S'save'
p610
aI307
aa(lp611
S'brow'
p612
aI308
aa(lp613
S'flowers'
p614
aI309
aa(lp615
S'lovely'
p616
aI310
aa(lp617
S'leaves'
p618
aI311
aa(lp619
S'winter'
p620
aI312
aa(lp621
S'child'
p622
aI313
aa(lp623
S'blessed'
p624
aI314
aa(lp625
S'joy'
p626
aI315
aa(lp627
S'skill'
p628
aI316
aa(lp629
S'lines'
p630
aI317
aa(lp631
S'blood'
p632
aI318
aa(lp633
S'gives'
p634
aI319
aa(lp635
S'waste'
p636
aI320
aa(lp637
S'cold'
p638
aI321
aa(lp639
S'fresh'
p640
aI322
aa(lp641
S'hear'
p642
aI323
aa(lp643
S'straight'
p644
aI324
aa(lp645
S'unless'
p646
aI325
aa(lp647
S'way'
p648
aI326
aa(lp649
S'steal'
p650
aI327
aa(lp651
S'under'
p652
aI328
aa(lp653
S'head'
p654
aI329
aa(lp655
S'return'
p656
aI330
aa(lp657
S'play'
p658
aI331
aa(lp659
S'living'
p660
aI332
aa(lp661
S"'ll"
p662
aI333
aa(lp663
S'ten'
p664
aI334
aa(lp665
S'roses'
p666
aI335
aa(lp667
S'whether'
p668
aI336
aa(lp669
S'sad'
p670
aI337
aa(lp671
S'canst'
p672
aI338
aa(lp673
S'having'
p674
aI339
aa(lp675
S'forth'
p676
aI340
aa(lp677
S'very'
p678
aI341
aa(lp679
S'excuse'
p680
aI342
aa(lp681
S'set'
p682
aI343
aa(lp683
S'through'
p684
aI344
aa(lp685
S'three'
p686
aI345
aa(lp687
S'white'
p688
aI346
aa(lp689
S'judgment'
p690
aI347
aa(lp691
S'swear'
p692
aI348
aa(lp693
S'bad'
p694
aI349
aa(lp695
S'honour'
p696
aI350
aa(lp697
S'man'
p698
aI351
aa(lp699
S'breast'
p700
aI352
aa(lp701
S'breath'
p702
aI353
aa(lp703
S'outward'
p704
aI354
aa(lp705
S'worst'
p706
aI355
aa(lp707
S'wide'
p708
aI356
aa(lp709
S'strength'
p710
aI357
aa(lp711
S'seeing'
p712
aI358
aa(lp713
S'itself'
p714
aI359
aa(lp715
S'memory'
p716
aI360
aa(lp717
S'slave'
p718
aI361
aa(lp719
S'body'
p720
aI362
aa(lp721
S'behold'
p722
aI363
aa(lp723
S'less'
p724
aI364
aa(lp725
S'virtue'
p726
aI365
aa(lp727
S'ah'
p728
aI366
aa(lp729
S'foul'
p730
aI367
aa(lp731
S'sing'
p732
aI368
aa(lp733
S'parts'
p734
aI369
aa(lp735
S'reason'
p736
aI370
aa(lp737
S'turn'
p738
aI371
aa(lp739
S'sick'
p740
aI372
aa(lp741
S'spent'
p742
aI373
aa(lp743
S'tomb'
p744
aI374
aa(lp745
S'strange'
p746
aI375
aa(lp747
S'taught'
p748
aI376
aa(lp749
S'rose'
p750
aI377
aa(lp751
S'fears'
p752
aI378
aa(lp753
S'argument'
p754
aI379
aa(lp755
S'due'
p756
aI380
aa(lp757
S'else'
p758
aI381
aa(lp759
S'painting'
p760
aI382
aa(lp761
S'heavy'
p762
aI383
aa(lp763
S'been'
p764
aI384
aa(lp765
S'dull'
p766
aI385
aa(lp767
S'only'
p768
aI386
aa(lp769
S'present'
p770
aI387
aa(lp771
S'care'
p772
aI388
aa(lp773
S'compare'
p774
aI389
aa(lp775
S'lack'
p776
aI390
aa(lp777
S'despite'
p778
aI391
aa(lp779
S'hence'
p780
aI392
aa(lp781
S'book'
p782
aI393
aa(lp783
S"'gainst"
p784
aI394
aa(lp785
S'wit'
p786
aI395
aa(lp787
S'writ'
p788
aI396
aa(lp789
S'dumb'
p790
aI397
aa(lp791
S'green'
p792
aI398
aa(lp793
S'go'
p794
aI399
aa(lp795
S'themselves'
p796
aI400
aa(lp797
S'longer'
p798
aI401
aa(lp799
S'golden'
p800
aI402
aa(lp801
S'eternal'
p802
aI403
aa(lp803
S'read'
p804
aI404
aa(lp805
S'rhyme'
p806
aI405
aa(lp807
S'wish'
p808
aI406
aa(lp809
S'woman'
p810
aI407
aa(lp811
S'wrong'
p812
aI408
aa(lp813
S'swift'
p814
aI409
aa(lp815
S'fill'
p816
aI410
aa(lp817
S'rest'
p818
aI411
aa(lp819
S'lovest'
p820
aI412
aa(lp821
S'hope'
p822
aI413
aa(lp823
S'war'
p824
aI414
aa(lp825
S'spend'
p826
aI415
aa(lp827
S'enough'
p828
aI416
aa(lp829
S'dwell'
p830
aI417
aa(lp831
S'same'
p832
aI418
aa(lp833
S'while'
p834
aI419
aa(lp835
S'ere'
p836
aI420
aa(lp837
S'precious'
p838
aI421
aa(lp839
S'sometime'
p840
aI422
aa(lp841
S'wealth'
p842
aI423
aa(lp843
S'kill'
p844
aI424
aa(lp845
S'shouldst'
p846
aI425
aa(lp847
S'grief'
p848
aI426
aa(lp849
S'gracious'
p850
aI427
aa(lp851
S'mortal'
p852
aI428
aa(lp853
S'blind'
p854
aI429
aa(lp855
S'music'
p856
aI430
aa(lp857
S'sweets'
p858
aI431
aa(lp859
S'lips'
p860
aI432
aa(lp861
S'need'
p862
aI433
aa(lp863
S'mad'
p864
aI434
aa(lp865
S"'will"
p866
aI435
aa(lp867
S'fell'
p868
aI436
aa(lp869
S'worthy'
p870
aI437
aa(lp871
S'brand'
p872
aI438
aa(lp873
S'hue'
p874
aI439
aa(lp875
S'graces'
p876
aI440
aa(lp877
S'subject'
p878
aI441
aa(lp879
S'faith'
p880
aI442
aa(lp881
S'into'
p882
aI443
aa(lp883
S'fast'
p884
aI444
aa(lp885
S'purpose'
p886
aI445
aa(lp887
S'side'
p888
aI446
aa(lp889
S'pain'
p890
aI447
aa(lp891
S'oft'
p892
aI448
aa(lp893
S'shows'
p894
aI449
aa(lp895
S'merit'
p896
aI450
aa(lp897
S'absence'
p898
aI451
aa(lp899
S'invention'
p900
aI452
aa(lp901
S'spite'
p902
aI453
aa(lp903
S'toil'
p904
aI454
aa(lp905
S'cure'
p906
aI455
aa(lp907
S'spring'
p908
aI456
aa(lp909
S'lived'
p910
aI457
aa(lp911
S'base'
p912
aI458
aa(lp913
S'shape'
p914
aI459
aa(lp915
S'sorrow'
p916
aI460
aa(lp917
S'tears'
p918
aI461
aa(lp919
S'rage'
p920
aI462
aa(lp921
S'weary'
p922
aI463
aa(lp923
S'canker'
p924
aI464
aa(lp925
S'sweetest'
p926
aI465
aa(lp927
S'cheek'
p928
aI466
aa(lp929
S'gift'
p930
aI467
aa(lp931
S'needs'
p932
aI468
aa(lp933
S'gave'
p934
aI469
aa(lp935
S'tied'
p936
aI470
aa(lp937
S'year'
p938
aI471
aa(lp939
S'flower'
p940
aI472
aa(lp941
S'mother'
p942
aI473
aa(lp943
S'antique'
p944
aI474
aa(lp945
S'least'
p946
aI475
aa(lp947
S'keeps'
p948
aI476
aa(lp949
S'quite'
p950
aI477
aa(lp951
S'took'
p952
aI478
aa(lp953
S'done'
p954
aI479
aa(lp955
S'trust'
p956
aI480
aa(lp957
S'says'
p958
aI481
aa(lp959
S'large'
p960
aI482
aa(lp961
S'painted'
p962
aI483
aa(lp963
S'water'
p964
aI484
aa(lp965
S'wherein'
p966
aI485
aa(lp967
S'slow'
p968
aI486
aa(lp969
S'motion'
p970
aI487
aa(lp971
S'speaking'
p972
aI488
aa(lp973
S'down'
p974
aI489
aa(lp975
S'angel'
p976
aI490
aa(lp977
S'left'
p978
aI491
aa(lp979
S"'will'"
p980
aI492
aa(lp981
S'brain'
p982
aI493
aa(lp983
S'sea'
p984
aI494
aa(lp985
S'near'
p986
aI495
aa(lp987
S'doom'
p988
aI496
aa(lp989
S'date'
p990
aI497
aa(lp991
S'calls'
p992
aI498
aa(lp993
S'truly'
p994
aI499
aa(lp995
S'pass'
p996
aI500
aa(lp997
S'lend'
p998
aI501
aa(lp999
S'beloved'
p1000
aI502
aa(lp1001
S'wrinkles'
p1002
aI503
aa(lp1003
S'remember'
p1004
aI504
aa(lp1005
S'buried'
p1006
aI505
aa(lp1007
S'boast'
p1008
aI506
aa(lp1009
S"mistress'"
p1010
aI507
aa(lp1011
S'ornament'
p1012
aI508
aa(lp1013
S'express'
p1014
aI509
aa(lp1015
S'hearts'
p1016
aI510
aa(lp1017
S'barren'
p1018
aI511
aa(lp1019
S'worse'
p1020
aI512
aa(lp1021
S'rank'
p1022
aI513
aa(lp1023
S'grew'
p1024
aI514
aa(lp1025
S"stol'n"
p1026
aI515
aa(lp1027
S'loved'
p1028
aI516
aa(lp1029
S'chide'
p1030
aI517
aa(lp1031
S'birth'
p1032
aI518
aa(lp1033
S'here'
p1034
aI519
aa(lp1035
S'hide'
p1036
aI520
aa(lp1037
S'scope'
p1038
aI521
aa(lp1039
S'yours'
p1040
aI522
aa(lp1041
S'moan'
p1042
aI523
aa(lp1043
S'short'
p1044
aI524
aa(lp1045
S'fairest'
p1046
aI525
aa(lp1047
S'saw'
p1048
aI526
aa(lp1049
S'absent'
p1050
aI527
aa(lp1051
S'rare'
p1052
aI528
aa(lp1053
S'seek'
p1054
aI529
aa(lp1055
S'wherefore'
p1056
aI530
aa(lp1057
S'buds'
p1058
aI531
aa(lp1059
S'tongues'
p1060
aI532
aa(lp1061
S'air'
p1062
aI533
aa(lp1063
S'forgot'
p1064
aI534
aa(lp1065
S'april'
p1066
aI535
aa(lp1067
S'prime'
p1068
aI536
aa(lp1069
S'substance'
p1070
aI537
aa(lp1071
S'esteem'
p1072
aI538
aa(lp1073
S'errors'
p1074
aI539
aa(lp1075
S'grant'
p1076
aI540
aa(lp1077
S'steel'
p1078
aI541
aa(lp1079
S'taste'
p1080
aI542
aa(lp1081
S'shade'
p1082
aI543
aa(lp1083
S'count'
p1084
aI544
aa(lp1085
S'common'
p1086
aI545
aa(lp1087
S'number'
p1088
aI546
aa(lp1089
S'lo'
p1090
aI547
aa(lp1091
S'bare'
p1092
aI548
aa(lp1093
S'worms'
p1094
aI549
aa(lp1095
S'numbers'
p1096
aI550
aa(lp1097
S'just'
p1098
aI551
aa(lp1099
S'grown'
p1100
aI552
aa(lp1101
S'widow'
p1102
aI553
aa(lp1103
S'above'
p1104
aI554
aa(lp1105
S'groan'
p1106
aI555
aa(lp1107
S'character'
p1108
aI556
aa(lp1109
S'leisure'
p1110
aI557
aa(lp1111
S'removed'
p1112
aI558
aa(lp1113
S'rehearse'
p1114
aI559
aa(lp1115
S'contented'
p1116
aI560
aa(lp1117
S'blame'
p1118
aI561
aa(lp1119
S'knowing'
p1120
aI562
aa(lp1121
S'single'
p1122
aI563
aa(lp1123
S'high'
p1124
aI564
aa(lp1125
S'second'
p1126
aI565
aa(lp1127
S'lays'
p1128
aI566
aa(lp1129
S'account'
p1130
aI567
aa(lp1131
S'knife'
p1132
aI568
aa(lp1133
S'holds'
p1134
aI569
aa(lp1135
S'praises'
p1136
aI570
aa(lp1137
S'unused'
p1138
aI571
aa(lp1139
S'used'
p1140
aI572
aa(lp1141
S'story'
p1142
aI573
aa(lp1143
S'song'
p1144
aI574
aa(lp1145
S'picture'
p1146
aI575
aa(lp1147
S'complexion'
p1148
aI576
aa(lp1149
S'told'
p1150
aI577
aa(lp1151
S'work'
p1152
aI578
aa(lp1153
S"others'"
p1154
aI579
aa(lp1155
S'colour'
p1156
aI580
aa(lp1157
S'frame'
p1158
aI581
aa(lp1159
S'assured'
p1160
aI582
aa(lp1161
S'scythe'
p1162
aI583
aa(lp1163
S'red'
p1164
aI584
aa(lp1165
S'inward'
p1166
aI585
aa(lp1167
S'beauties'
p1168
aI586
aa(lp1169
S'want'
p1170
aI587
aa(lp1171
S'brass'
p1172
aI588
aa(lp1173
S'frown'
p1174
aI589
aa(lp1175
S'sum'
p1176
aI590
aa(lp1177
S'image'
p1178
aI591
aa(lp1179
S'appear'
p1180
aI592
aa(lp1181
S'said'
p1182
aI593
aa(lp1183
S'win'
p1184
aI594
aa(lp1185
S'mark'
p1186
aI595
aa(lp1187
S'gain'
p1188
aI596
aa(lp1189
S'husband'
p1190
aI597
aa(lp1191
S'given'
p1192
aI598
aa(lp1193
S'sleep'
p1194
aI599
aa(lp1195
S'holy'
p1196
aI600
aa(lp1197
S'lends'
p1198
aI601
aa(lp1199
S'believe'
p1200
aI602
aa(lp1201
S'public'
p1202
aI603
aa(lp1203
S'free'
p1204
aI604
aa(lp1205
S'babe'
p1206
aI605
aa(lp1207
S'break'
p1208
aI606
aa(lp1209
S'heat'
p1210
aI607
aa(lp1211
S'slander'
p1212
aI608
aa(lp1213
S'mistress'
p1214
aI609
aa(lp1215
S'cross'
p1216
aI610
aa(lp1217
S'morrow'
p1218
aI611
aa(lp1219
S'jewel'
p1220
aI612
aa(lp1221
S'abundance'
p1222
aI613
aa(lp1223
S'former'
p1224
aI614
aa(lp1225
S'stars'
p1226
aI615
aa(lp1227
S'pluck'
p1228
aI616
aa(lp1229
S'catch'
p1230
aI617
aa(lp1231
S'methinks'
p1232
aI618
aa(lp1233
S'sense'
p1234
aI619
aa(lp1235
S'heavenly'
p1236
aI620
aa(lp1237
S'laid'
p1238
aI621
aa(lp1239
S'add'
p1240
aI622
aa(lp1241
S'thief'
p1242
aI623
aa(lp1243
S'sovereign'
p1244
aI624
aa(lp1245
S'tired'
p1246
aI625
aa(lp1247
S'young'
p1248
aI626
aa(lp1249
S'crown'
p1250
aI627
aa(lp1251
S'smell'
p1252
aI628
aa(lp1253
S'wound'
p1254
aI629
aa(lp1255
S'shine'
p1256
aI630
aa(lp1257
S'lease'
p1258
aI631
aa(lp1259
S'son'
p1260
aI632
aa(lp1261
S'hour'
p1262
aI633
aa(lp1263
S'flatter'
p1264
aI634
aa(lp1265
S'burn'
p1266
aI635
aa(lp1267
S'lost'
p1268
aI636
aa(lp1269
S'bath'
p1270
aI637
aa(lp1271
S'clouds'
p1272
aI638
aa(lp1273
S'please'
p1274
aI639
aa(lp1275
S'stain'
p1276
aI640
aa(lp1277
S'behind'
p1278
aI641
aa(lp1279
S'either'
p1280
aI642
aa(lp1281
S'crime'
p1282
aI643
aa(lp1283
S'vow'
p1284
aI644
aa(lp1285
S"ne'er"
p1286
aI645
aa(lp1287
S'evil'
p1288
aI646
aa(lp1289
S'respect'
p1290
aI647
aa(lp1291
S'minutes'
p1292
aI648
aa(lp1293
S'dare'
p1294
aI649
aa(lp1295
S'answer'
p1296
aI650
aa(lp1297
S'touches'
p1298
aI651
aa(lp1299
S'rude'
p1300
aI652
aa(lp1301
S'cheeks'
p1302
aI653
aa(lp1303
S'comfort'
p1304
aI654
aa(lp1305
S'weeds'
p1306
aI655
aa(lp1307
S'help'
p1308
aI656
aa(lp1309
S'bosom'
p1310
aI657
aa(lp1311
S'wretched'
p1312
aI658
aa(lp1313
S'poet'
p1314
aI659
aa(lp1315
S'forsworn'
p1316
aI660
aa(lp1317
S'report'
p1318
aI661
aa(lp1319
S'gavest'
p1320
aI662
aa(lp1321
S'wonder'
p1322
aI663
aa(lp1323
S'course'
p1324
aI664
aa(lp1325
S'perjured'
p1326
aI665
aa(lp1327
S'draw'
p1328
aI666
aa(lp1329
S'half'
p1330
aI667
aa(lp1331
S'moon'
p1332
aI668
aa(lp1333
S'bonds'
p1334
aI669
aa(lp1335
S'drawn'
p1336
aI670
aa(lp1337
S'hang'
p1338
aI671
aa(lp1339
S'scorn'
p1340
aI672
aa(lp1341
S'edge'
p1342
aI673
aa(lp1343
S'bearing'
p1344
aI674
aa(lp1345
S'fingers'
p1346
aI675
aa(lp1347
S'odour'
p1348
aI676
aa(lp1349
S'deem'
p1350
aI677
aa(lp1351
S'thrice'
p1352
aI678
aa(lp1353
S'appetite'
p1354
aI679
aa(lp1355
S'silence'
p1356
aI680
aa(lp1357
S'converted'
p1358
aI681
aa(lp1359
S'cheque'
p1360
aI682
aa(lp1361
S'hot'
p1362
aI683
aa(lp1363
S'home'
p1364
aI684
aa(lp1365
S'quick'
p1366
aI685
aa(lp1367
S'murderous'
p1368
aI686
aa(lp1369
S'mock'
p1370
aI687
aa(lp1371
S'unlook'
p1372
aI688
aa(lp1373
S'shore'
p1374
aI689
aa(lp1375
S'burden'
p1376
aI690
aa(lp1377
S'conquest'
p1378
aI691
aa(lp1379
S'weep'
p1380
aI692
aa(lp1381
S'going'
p1382
aI693
aa(lp1383
S'anew'
p1384
aI694
aa(lp1385
S'works'
p1386
aI695
aa(lp1387
S'stone'
p1388
aI696
aa(lp1389
S'perfect'
p1390
aI697
aa(lp1391
S'forget'
p1392
aI698
aa(lp1393
S'main'
p1394
aI699
aa(lp1395
S'forbid'
p1396
aI700
aa(lp1397
S'confounds'
p1398
aI701
aa(lp1399
S'pace'
p1400
aI702
aa(lp1401
S'feeding'
p1402
aI703
aa(lp1403
S'effect'
p1404
aI704
aa(lp1405
S'control'
p1406
aI705
aa(lp1407
S'speed'
p1408
aI706
aa(lp1409
S'steep'
p1410
aI707
aa(lp1411
S'reasons'
p1412
aI708
aa(lp1413
S'kiss'
p1414
aI709
aa(lp1415
S'majesty'
p1416
aI710
aa(lp1417
S'desert'
p1418
aI711
aa(lp1419
S'happier'
p1420
aI712
aa(lp1421
S'blunt'
p1422
aI713
aa(lp1423
S'cause'
p1424
aI714
aa(lp1425
S'women'
p1426
aI715
aa(lp1427
S'elsewhere'
p1428
aI716
aa(lp1429
S'sacred'
p1430
aI717
aa(lp1431
S'vex'
p1432
aI718
aa(lp1433
S'teach'
p1434
aI719
aa(lp1435
S'general'
p1436
aI720
aa(lp1437
S'blest'
p1438
aI721
aa(lp1439
S'fame'
p1440
aI722
aa(lp1441
S'fade'
p1442
aI723
aa(lp1443
S'serving'
p1444
aI724
aa(lp1445
S'ear'
p1446
aI725
aa(lp1447
S'kept'
p1448
aI726
aa(lp1449
S'pay'
p1450
aI727
aa(lp1451
S'five'
p1452
aI728
aa(lp1453
S'greet'
p1454
aI729
aa(lp1455
S'stands'
p1456
aI730
aa(lp1457
S'fool'
p1458
aI731
aa(lp1459
S'sail'
p1460
aI732
aa(lp1461
S'wretch'
p1462
aI733
aa(lp1463
S'sure'
p1464
aI734
aa(lp1465
S'wood'
p1466
aI735
aa(lp1467
S'cover'
p1468
aI736
aa(lp1469
S'pitch'
p1470
aI737
aa(lp1471
S'chest'
p1472
aI738
aa(lp1473
S'pilgrimage'
p1474
aI739
aa(lp1475
S'distill'
p1476
aI740
aa(lp1477
S'whence'
p1478
aI741
aa(lp1479
S'vile'
p1480
aI742
aa(lp1481
S'record'
p1482
aI743
aa(lp1483
S'learn'
p1484
aI744
aa(lp1485
S'attending'
p1486
aI745
aa(lp1487
S'receivest'
p1488
aI746
aa(lp1489
S'god'
p1490
aI747
aa(lp1491
S'prize'
p1492
aI748
aa(lp1493
S'ocean'
p1494
aI749
aa(lp1495
S'yellow'
p1496
aI750
aa(lp1497
S'shake'
p1498
aI751
aa(lp1499
S'tend'
p1500
aI752
aa(lp1501
S'resembling'
p1502
aI753
aa(lp1503
S'wert'
p1504
aI754
aa(lp1505
S'fall'
p1506
aI755
aa(lp1507
S'despair'
p1508
aI756
aa(lp1509
S'amiss'
p1510
aI757
aa(lp1511
S'plea'
p1512
aI758
aa(lp1513
S'lawful'
p1514
aI759
aa(lp1515
S'conscience'
p1516
aI760
aa(lp1517
S'simple'
p1518
aI761
aa(lp1519
S'weed'
p1520
aI762
aa(lp1521
S'fault'
p1522
aI763
aa(lp1523
S'sins'
p1524
aI764
aa(lp1525
S'infection'
p1526
aI765
aa(lp1527
S'travel'
p1528
aI766
aa(lp1529
S'looking'
p1530
aI767
aa(lp1531
S'thorns'
p1532
aI768
aa(lp1533
S'father'
p1534
aI769
aa(lp1535
S'plague'
p1536
aI770
aa(lp1537
S'offence'
p1538
aI771
aa(lp1539
S'bears'
p1540
aI772
aa(lp1541
S'ground'
p1542
aI773
aa(lp1543
S'twain'
p1544
aI774
aa(lp1545
S'sway'
p1546
aI775
aa(lp1547
S'sworn'
p1548
aI776
aa(lp1549
S'proof'
p1550
aI777
aa(lp1551
S'send'
p1552
aI778
aa(lp1553
S'witness'
p1554
aI779
aa(lp1555
S'wanting'
p1556
aI780
aa(lp1557
S'vulgar'
p1558
aI781
aa(lp1559
S'rain'
p1560
aI782
aa(lp1561
S'proved'
p1562
aI783
aa(lp1563
S'despised'
p1564
aI784
aa(lp1565
S'dearest'
p1566
aI785
aa(lp1567
S'bed'
p1568
aI786
aa(lp1569
S'brief'
p1570
aI787
aa(lp1571
S'star'
p1572
aI788
aa(lp1573
S'receives'
p1574
aI789
aa(lp1575
S'evermore'
p1576
aI790
aa(lp1577
S'alter'
p1578
aI791
aa(lp1579
S'remain'
p1580
aI792
aa(lp1581
S'haste'
p1582
aI793
aa(lp1583
S'grave'
p1584
aI794
aa(lp1585
S'eat'
p1586
aI795
aa(lp1587
S'oaths'
p1588
aI796
aa(lp1589
S'among'
p1590
aI797
aa(lp1591
S'friends'
p1592
aI798
aa(lp1593
S'lover'
p1594
aI799
aa(lp1595
S'flies'
p1596
aI800
aa(lp1597
S'survey'
p1598
aI801
aa(lp1599
S'heir'
p1600
aI802
aa(lp1601
S'decease'
p1602
aI803
aa(lp1603
S'almost'
p1604
aI804
aa(lp1605
S'haply'
p1606
aI805
aa(lp1607
S'bastard'
p1608
aI806
aa(lp1609
S'mourn'
p1610
aI807
aa(lp1611
S'thinking'
p1612
aI808
aa(lp1613
S'line'
p1614
aI809
aa(lp1615
S'grows'
p1616
aI810
aa(lp1617
S'increase'
p1618
aI811
aa(lp1619
S'unkind'
p1620
aI812
aa(lp1621
S'expense'
p1622
aI813
aa(lp1623
S'birds'
p1624
aI814
aa(lp1625
S'suspect'
p1626
aI815
aa(lp1627
S'growing'
p1628
aI816
aa(lp1629
S'brought'
p1630
aI817
aa(lp1631
S'reign'
p1632
aI818
aa(lp1633
S'farther'
p1634
aI819
aa(lp1635
S'didst'
p1636
aI820
aa(lp1637
S'blot'
p1638
aI821
aa(lp1639
S'minds'
p1640
aI822
aa(lp1641
S'alack'
p1642
aI823
aa(lp1643
S'mend'
p1644
aI824
aa(lp1645
S'west'
p1646
aI825
aa(lp1647
S'daily'
p1648
aI826
aa(lp1649
S'ride'
p1650
aI827
aa(lp1651
S'basest'
p1652
aI828
aa(lp1653
S'taken'
p1654
aI829
aa(lp1655
S'whereto'
p1656
aI830
aa(lp1657
S'style'
p1658
aI831
aa(lp1659
S'flame'
p1660
aI832
aa(lp1661
S'outlive'
p1662
aI833
aa(lp1663
S'pine'
p1664
aI834
aa(lp1665
S'seeming'
p1666
aI835
aa(lp1667
S'doing'
p1668
aI836
aa(lp1669
S'soon'
p1670
aI837
aa(lp1671
S'losing'
p1672
aI838
aa(lp1673
S'approve'
p1674
aI839
aa(lp1675
S'audit'
p1676
aI840
aa(lp1677
S'triumph'
p1678
aI841
aa(lp1679
S'because'
p1680
aI842
aa(lp1681
S'maiden'
p1682
aI843
aa(lp1683
S'leap'
p1684
aI844
aa(lp1685
S"'i"
p1686
aI845
aa(lp1687
S'ruin'
p1688
aI846
aa(lp1689
S'follow'
p1690
aI847
aa(lp1691
S'constancy'
p1692
aI848
aa(lp1693
S"hate'"
p1694
aI849
aa(lp1695
S'acquaintance'
p1696
aI850
aa(lp1697
S"'fair"
p1698
aI851
aa(lp1699
S'cost'
p1700
aI852
aa(lp1701
S'foot'
p1702
aI853
aa(lp1703
S'means'
p1704
aI854
aa(lp1705
S'matter'
p1706
aI855
aa(lp1707
S'therein'
p1708
aI856
aa(lp1709
S'cunning'
p1710
aI857
aa(lp1711
S'clear'
p1712
aI858
aa(lp1713
S'shadows'
p1714
aI859
aa(lp1715
S'virtuous'
p1716
aI860
aa(lp1717
S'abuse'
p1718
aI861
aa(lp1719
S'flesh'
p1720
aI862
aa(lp1721
S'favour'
p1722
aI863
aa(lp1723
S'dark'
p1724
aI864
aa(lp1725
S'got'
p1726
aI865
aa(lp1727
S'over'
p1728
aI866
aa(lp1729
S'sinful'
p1730
aI867
aa(lp1731
S'advantage'
p1732
aI868
aa(lp1733
S'flattery'
p1734
aI869
aa(lp1735
S'turns'
p1736
aI870
aa(lp1737
S'windows'
p1738
aI871
aa(lp1739
S'confined'
p1740
aI872
aa(lp1741
S'action'
p1742
aI873
aa(lp1743
S'foes'
p1744
aI874
aa(lp1745
S'constant'
p1746
aI875
aa(lp1747
S'painter'
p1748
aI876
aa(lp1749
S'boy'
p1750
aI877
aa(lp1751
S'wouldst'
p1752
aI878
aa(lp1753
S'knowledge'
p1754
aI879
aa(lp1755
S'fairer'
p1756
aI880
aa(lp1757
S'greater'
p1758
aI881
aa(lp1759
S'razed'
p1760
aI882
aa(lp1761
S'duty'
p1762
aI883
aa(lp1763
S'injury'
p1764
aI884
aa(lp1765
S'dial'
p1766
aI885
aa(lp1767
S'came'
p1768
aI886
aa(lp1769
S'manners'
p1770
aI887
aa(lp1771
S'eternity'
p1772
aI888
aa(lp1773
S'fight'
p1774
aI889
aa(lp1775
S'thousand'
p1776
aI890
aa(lp1777
S'feel'
p1778
aI891
aa(lp1779
S'posterity'
p1780
aI892
aa(lp1781
S'repair'
p1782
aI893
aa(lp1783
S'double'
p1784
aI894
aa(lp1785
S'growth'
p1786
aI895
aa(lp1787
S'tyrant'
p1788
aI896
aa(lp1789
S'bloody'
p1790
aI897
aa(lp1791
S'defect'
p1792
aI898
aa(lp1793
S'wait'
p1794
aI899
aa(lp1795
S'pencil'
p1796
aI900
aa(lp1797
S'winds'
p1798
aI901
aa(lp1799
S'outworn'
p1800
aI902
aa(lp1801
S'coming'
p1802
aI903
aa(lp1803
S'tie'
p1804
aI904
aa(lp1805
S'pursuit'
p1806
aI905
aa(lp1807
S'often'
p1808
aI906
aa(lp1809
S'takes'
p1810
aI907
aa(lp1811
S'wits'
p1812
aI908
aa(lp1813
S'defence'
p1814
aI909
aa(lp1815
S'counterfeit'
p1816
aI910
aa(lp1817
S'suit'
p1818
aI911
aa(lp1819
S'shines'
p1820
aI912
aa(lp1821
S'mourning'
p1822
aI913
aa(lp1823
S'gold'
p1824
aI914
aa(lp1825
S'pure'
p1826
aI915
aa(lp1827
S'woo'
p1828
aI916
aa(lp1829
S'neither'
p1830
aI917
aa(lp1831
S'envy'
p1832
aI918
aa(lp1833
S'crow'
p1834
aI919
aa(lp1835
S'feeling'
p1836
aI920
aa(lp1837
S'antiquity'
p1838
aI921
aa(lp1839
S'cry'
p1840
aI922
aa(lp1841
S'prepare'
p1842
aI923
aa(lp1843
S'lively'
p1844
aI924
aa(lp1845
S'crooked'
p1846
aI925
aa(lp1847
S'confound'
p1848
aI926
aa(lp1849
S'fortify'
p1850
aI927
aa(lp1851
S'faces'
p1852
aI928
aa(lp1853
S'belied'
p1854
aI929
aa(lp1855
S'touch'
p1856
aI930
aa(lp1857
S'feeds'
p1858
aI931
aa(lp1859
S'king'
p1860
aI932
aa(lp1861
S'deserts'
p1862
aI933
aa(lp1863
S'sound'
p1864
aI934
aa(lp1865
S'thrive'
p1866
aI935
aa(lp1867
S'wires'
p1868
aI936
aa(lp1869
S'shames'
p1870
aI937
aa(lp1871
S'wind'
p1872
aI938
aa(lp1873
S'princes'
p1874
aI939
aa(lp1875
S'ink'
p1876
aI940
aa(lp1877
S'idle'
p1878
aI941
aa(lp1879
S'becomes'
p1880
aI942
aa(lp1881
S'veins'
p1882
aI943
aa(lp1883
S'measure'
p1884
aI944
aa(lp1885
S'last'
p1886
aI945
aa(lp1887
S'guess'
p1888
aI946
aa(lp1889
S'shown'
p1890
aI947
aa(lp1891
S'subjects'
p1892
aI948
aa(lp1893
S'twice'
p1894
aI949
aa(lp1895
S'alive'
p1896
aI950
aa(lp1897
S'pretty'
p1898
aI951
aa(lp1899
S'dress'
p1900
aI952
aa(lp1901
S'disdain'
p1902
aI953
aa(lp1903
S'goes'
p1904
aI954
aa(lp1905
S'gay'
p1906
aI955
aa(lp1907
S'beggar'
p1908
aI956
aa(lp1909
S'term'
p1910
aI957
aa(lp1911
S'grounded'
p1912
aI958
aa(lp1913
S'extreme'
p1914
aI959
aa(lp1915
S'remedy'
p1916
aI960
aa(lp1917
S'sooner'
p1918
aI961
aa(lp1919
S'map'
p1920
aI962
aa(lp1921
S'issue'
p1922
aI963
aa(lp1923
S'thievish'
p1924
aI964
aa(lp1925
S'belong'
p1926
aI965
aa(lp1927
S'render'
p1928
aI966
aa(lp1929
S'bold'
p1930
aI967
aa(lp1931
S'invent'
p1932
aI968
aa(lp1933
S'conceit'
p1934
aI969
aa(lp1935
S'sit'
p1936
aI970
aa(lp1937
S'lame'
p1938
aI971
aa(lp1939
S'sort'
p1940
aI972
aa(lp1941
S'moving'
p1942
aI973
aa(lp1943
S'kindness'
p1944
aI974
aa(lp1945
S'repose'
p1946
aI975
aa(lp1947
S'limbs'
p1948
aI976
aa(lp1949
S'confess'
p1950
aI977
aa(lp1951
S'robs'
p1952
aI978
aa(lp1953
S'sourly'
p1954
aI979
aa(lp1955
S'journey'
p1956
aI980
aa(lp1957
S'abide'
p1958
aI981
aa(lp1959
S'sensual'
p1960
aI982
aa(lp1961
S'eyelids'
p1962
aI983
aa(lp1963
S'trespass'
p1964
aI984
aa(lp1965
S'open'
p1966
aI985
aa(lp1967
S'sightless'
p1968
aI986
aa(lp1969
S'ransom'
p1970
aI987
aa(lp1971
S'aught'
p1972
aI988
aa(lp1973
S'slight'
p1974
aI989
aa(lp1975
S'weak'
p1976
aI990
aa(lp1977
S'strongly'
p1978
aI991
aa(lp1979
S'forbear'
p1980
aI992
aa(lp1981
S'seat'
p1982
aI993
aa(lp1983
S'ay'
p1984
aI994
aa(lp1985
S'temptation'
p1986
aI995
aa(lp1987
S'years'
p1988
aI996
aa(lp1989
S'liberty'
p1990
aI997
aa(lp1991
S'wrongs'
p1992
aI998
aa(lp1993
S'petty'
p1994
aI999
aa(lp1995
S'lascivious'
p1996
aI1000
aa(lp1997
S'poverty'
p1998
aI1001
aa(lp1999
S'robbery'
p2000
aI1002
aa(lp2001
S'wilful'
p2002
aI1003
aa(lp2003
S'blamed'
p2004
aI1004
aa(lp2005
S'unkindness'
p2006
aI1005
aa(lp2007
S'hadst'
p2008
aI1006
aa(lp2009
S'remove'
p2010
aI1007
aa(lp2011
S'praising'
p2012
aI1008
aa(lp2013
S'sour'
p2014
aI1009
aa(lp2015
S'torment'
p2016
aI1010
aa(lp2017
S'us'
p2018
aI1011
aa(lp2019
S"'t"
p2020
aI1012
aa(lp2021
S'hung'
p2022
aI1013
aa(lp2023
S'physic'
p2024
aI1014
aa(lp2025
S'lead'
p2026
aI1015
aa(lp2027
S'curse'
p2028
aI1016
aa(lp2029
S'vouchsafe'
p2030
aI1017
aa(lp2031
S'height'
p2032
aI1018
aa(lp2033
S'reserve'
p2034
aI1019
aa(lp2035
S'bettering'
p2036
aI1020
aa(lp2037
S'deceased'
p2038
aI1021
aa(lp2039
S'dust'
p2040
aI1022
aa(lp2041
S'survive'
p2042
aI1023
aa(lp2043
S'enjoy'
p2044
aI1024
aa(lp2045
S'lovers'
p2046
aI1025
aa(lp2047
S'bore'
p2048
aI1026
aa(lp2049
S'interest'
p2050
aI1027
aa(lp2051
S'obsequious'
p2052
aI1028
aa(lp2053
S'supposed'
p2054
aI1029
aa(lp2055
S'sullen'
p2056
aI1030
aa(lp2057
S'hymns'
p2058
aI1031
aa(lp2059
S'discontent'
p2060
aI1032
aa(lp2061
S'brings'
p2062
aI1033
aa(lp2063
S'kings'
p2064
aI1034
aa(lp2065
S'heavily'
p2066
aI1035
aa(lp2067
S'vanish'
p2068
aI1036
aa(lp2069
S'dateless'
p2070
aI1037
aa(lp2071
S'dearer'
p2072
aI1038
aa(lp2073
S'cries'
p2074
aI1039
aa(lp2075
S'benefit'
p2076
aI1040
aa(lp2077
S'died'
p2078
aI1041
aa(lp2079
S'oppress'
p2080
aI1042
aa(lp2081
S'enemies'
p2082
aI1043
aa(lp2083
S'rotten'
p2084
aI1044
aa(lp2085
S'hands'
p2086
aI1045
aa(lp2087
S'torture'
p2088
aI1046
aa(lp2089
S'off'
p2090
aI1047
aa(lp2091
S'mask'
p2092
aI1048
aa(lp2093
S'cloud'
p2094
aI1049
aa(lp2095
S'triumphant'
p2096
aI1050
aa(lp2097
S'morn'
p2098
aI1051
aa(lp2099
S'unseen'
p2100
aI1052
aa(lp2101
S'stealing'
p2102
aI1053
aa(lp2103
S'sorrows'
p2104
aI1054
aa(lp2105
S'nightly'
p2106
aI1055
aa(lp2107
S'anon'
p2108
aI1056
aa(lp2109
S'alchemy'
p2110
aI1057
aa(lp2111
S'pale'
p2112
aI1058
aa(lp2113
S'stronger'
p2114
aI1059
aa(lp2115
S'mountain'
p2116
aI1060
aa(lp2117
S'morning'
p2118
aI1061
aa(lp2119
S'poets'
p2120
aI1062
aa(lp2121
S'try'
p2122
aI1063
aa(lp2123
S'bars'
p2124
aI1064
aa(lp2125
S'privilege'
p2126
aI1065
aa(lp2127
S'root'
p2128
aI1066
aa(lp2129
S'seasons'
p2130
aI1067
aa(lp2131
S"whate'er"
p2132
aI1068
aa(lp2133
S'powerful'
p2134
aI1069
aa(lp2135
S'gilded'
p2136
aI1070
aa(lp2137
S'fading'
p2138
aI1071
aa(lp2139
S'deaths'
p2140
aI1072
aa(lp2141
S'wills'
p2142
aI1073
aa(lp2143
S'allow'
p2144
aI1074
aa(lp2145
S'pattern'
p2146
aI1075
aa(lp2147
S'master'
p2148
aI1076
aa(lp2149
S'acquainted'
p2150
aI1077
aa(lp2151
S'reckon'
p2152
aI1078
aa(lp2153
S'whereof'
p2154
aI1079
aa(lp2155
S'imprison'
p2156
aI1080
aa(lp2157
S'fashion'
p2158
aI1081
aa(lp2159
S'theirs'
p2160
aI1082
aa(lp2161
S'special'
p2162
aI1083
aa(lp2163
S'gilding'
p2164
aI1084
aa(lp2165
S'captain'
p2166
aI1085
aa(lp2167
S'jacks'
p2168
aI1086
aa(lp2169
S'controlling'
p2170
aI1087
aa(lp2171
S'glad'
p2172
aI1088
aa(lp2173
S'fierce'
p2174
aI1089
aa(lp2175
S'point'
p2176
aI1090
aa(lp2177
S'wear'
p2178
aI1091
aa(lp2179
S'charter'
p2180
aI1092
aa(lp2181
S'bide'
p2182
aI1093
aa(lp2183
S'changing'
p2184
aI1094
aa(lp2185
S'patience'
p2186
aI1095
aa(lp2187
S'suffer'
p2188
aI1096
aa(lp2189
S'bound'
p2190
aI1097
aa(lp2191
S'vassal'
p2192
aI1098
aa(lp2193
S'thinks'
p2194
aI1099
aa(lp2195
S'affairs'
p2196
aI1100
aa(lp2197
S'lust'
p2198
aI1101
aa(lp2199
S'possession'
p2200
aI1102
aa(lp2201
S'servant'
p2202
aI1103
aa(lp2203
S'bitterness'
p2204
aI1104
aa(lp2205
S'watch'
p2206
aI1105
aa(lp2207
S'welcome'
p2208
aI1106
aa(lp2209
S'breathe'
p2210
aI1107
aa(lp2211
S'perpetual'
p2212
aI1108
aa(lp2213
S'hungry'
p2214
aI1109
aa(lp2215
S'force'
p2216
aI1110
aa(lp2217
S'renew'
p2218
aI1111
aa(lp2219
S'keen'
p2220
aI1112
aa(lp2221
S'seldom'
p2222
aI1113
aa(lp2223
S'souls'
p2224
aI1114
aa(lp2225
S'ye'
p2226
aI1115
aa(lp2227
S'slain'
p2228
aI1116
aa(lp2229
S'replete'
p2230
aI1117
aa(lp2231
S'quest'
p2232
aI1118
aa(lp2233
S'title'
p2234
aI1119
aa(lp2235
S'tables'
p2236
aI1120
aa(lp2237
S'health'
p2238
aI1121
aa(lp2239
S'plead'
p2240
aI1122
aa(lp2241
S'silent'
p2242
aI1123
aa(lp2243
S'belongs'
p2244
aI1124
aa(lp2245
S'fine'
p2246
aI1125
aa(lp2247
S'elements'
p2248
aI1126
aa(lp2249
S'nought'
p2250
aI1127
aa(lp2251
S'miles'
p2252
aI1128
aa(lp2253
S'nimble'
p2254
aI1129
aa(lp2255
S'farthest'
p2256
aI1130
aa(lp2257
S'injurious'
p2258
aI1131
aa(lp2259
S'nights'
p2260
aI1132
aa(lp2261
S'clearer'
p2262
aI1133
aa(lp2263
S'dreams'
p2264
aI1134
aa(lp2265
S'unrespected'
p2266
aI1135
aa(lp2267
S'wink'
p2268
aI1136
aa(lp2269
S'lay'
p2270
aI1137
aa(lp2271
S'besides'
p2272
aI1138
aa(lp2273
S'feast'
p2274
aI1139
aa(lp2275
S'towards'
p2276
aI1140
aa(lp2277
S'borrow'
p2278
aI1141
aa(lp2279
S'created'
p2280
aI1142
aa(lp2281
S'wrought'
p2282
aI1143
aa(lp2283
S'horse'
p2284
aI1144
aa(lp2285
S'doting'
p2286
aI1145
aa(lp2287
S'addition'
p2288
aI1146
aa(lp2289
S'sharp'
p2290
aI1147
aa(lp2291
S'becoming'
p2292
aI1148
aa(lp2293
S'spur'
p2294
aI1149
aa(lp2295
S'mourners'
p2296
aI1150
aa(lp2297
S'beast'
p2298
aI1151
aa(lp2299
S'ease'
p2300
aI1152
aa(lp2301
S'guard'
p2302
aI1153
aa(lp2303
S'strangely'
p2304
aI1154
aa(lp2305
S'fix'
p2306
aI1155
aa(lp2307
S'cast'
p2308
aI1156
aa(lp2309
S'prey'
p2310
aI1157
aa(lp2311
S'jewels'
p2312
aI1158
aa(lp2313
S'falsehood'
p2314
aI1159
aa(lp2315
S'profaned'
p2316
aI1160
aa(lp2317
S'careful'
p2318
aI1161
aa(lp2319
S'guest'
p2320
aI1162
aa(lp2321
S'fled'
p2322
aI1163
aa(lp2323
S'hid'
p2324
aI1164
aa(lp2325
S'forsake'
p2326
aI1165
aa(lp2327
S'mutual'
p2328
aI1166
aa(lp2329
S'vainly'
p2330
aI1167
aa(lp2331
S'drink'
p2332
aI1168
aa(lp2333
S'delights'
p2334
aI1169
aa(lp2335
S'potions'
p2336
aI1170
aa(lp2337
S'bitter'
p2338
aI1171
aa(lp2339
S'concord'
p2340
aI1172
aa(lp2341
S'giving'
p2342
aI1173
aa(lp2343
S'strive'
p2344
aI1174
aa(lp2345
S'sounds'
p2346
aI1175
aa(lp2347
S'spirits'
p2348
aI1176
aa(lp2349
S'married'
p2350
aI1177
aa(lp2351
S'something'
p2352
aI1178
aa(lp2353
S'praised'
p2354
aI1179
aa(lp2355
S'sweetly'
p2356
aI1180
aa(lp2357
S'affords'
p2358
aI1181
aa(lp2359
S'riches'
p2360
aI1182
aa(lp2361
S'get'
p2362
aI1183
aa(lp2363
S'diest'
p2364
aI1184
aa(lp2365
S'bending'
p2366
aI1185
aa(lp2367
S'desired'
p2368
aI1186
aa(lp2369
S'newer'
p2370
aI1187
aa(lp2371
S'duteous'
p2372
aI1188
aa(lp2373
S'low'
p2374
aI1189
aa(lp2375
S'vantage'
p2376
aI1190
aa(lp2377
S'injuries'
p2378
aI1191
aa(lp2379
S'tract'
p2380
aI1192
aa(lp2381
S"'this"
p2382
aI1193
aa(lp2383
S'next'
p2384
aI1194
aa(lp2385
S'guilty'
p2386
aI1195
aa(lp2387
S'goddess'
p2388
aI1196
aa(lp2389
S'noon'
p2390
aI1197
aa(lp2391
S'dream'
p2392
aI1198
aa(lp2393
S'comes'
p2394
aI1199
aa(lp2395
S'abhor'
p2396
aI1200
aa(lp2397
S'pleasing'
p2398
aI1201
aa(lp2399
S'makest'
p2400
aI1202
aa(lp2401
S'held'
p2402
aI1203
aa(lp2403
S'winters'
p2404
aI1204
aa(lp2405
S'yield'
p2406
aI1205
aa(lp2407
S'worthless'
p2408
aI1206
aa(lp2409
S'himself'
p2410
aI1207
aa(lp2411
S'commits'
p2412
aI1208
aa(lp2413
S'deny'
p2414
aI1209
aa(lp2415
S'bark'
p2416
aI1210
aa(lp2417
S'saucy'
p2418
aI1211
aa(lp2419
S'palate'
p2420
aI1212
aa(lp2421
S'humble'
p2422
aI1213
aa(lp2423
S'possess'
p2424
aI1214
aa(lp2425
S'poison'
p2426
aI1215
aa(lp2427
S'pays'
p2428
aI1216
aa(lp2429
S'aid'
p2430
aI1217
aa(lp2431
S'chief'
p2432
aI1218
aa(lp2433
S'monument'
p2434
aI1219
aa(lp2435
S'children'
p2436
aI1220
aa(lp2437
S'fulfil'
p2438
aI1221
aa(lp2439
S'tatter'
p2440
aI1222
aa(lp2441
S'comments'
p2442
aI1223
aa(lp2443
S'note'
p2444
aI1224
aa(lp2445
S'small'
p2446
aI1225
aa(lp2447
S'speechless'
p2448
aI1226
aa(lp2449
S'sings'
p2450
aI1227
aa(lp2451
S'example'
p2452
aI1228
aa(lp2453
S'mute'
p2454
aI1229
aa(lp2455
S'finding'
p2456
aI1230
aa(lp2457
S'objects'
p2458
aI1231
aa(lp2459
S'quill'
p2460
aI1232
aa(lp2461
S'corrupt'
p2462
aI1233
aa(lp2463
S'gross'
p2464
aI1234
aa(lp2465
S'wail'
p2466
aI1235
aa(lp2467
S'stamp'
p2468
aI1236
aa(lp2469
S"'fore"
p2470
aI1237
aa(lp2471
S'walks'
p2472
aI1238
aa(lp2473
S'reeleth'
p2474
aI1239
aa(lp2475
S'bent'
p2476
aI1240
aa(lp2477
S'fiend'
p2478
aI1241
aa(lp2479
S'pent'
p2480
aI1242
aa(lp2481
S'autumn'
p2482
aI1243
aa(lp2483
S'walls'
p2484
aI1244
aa(lp2485
S'perfumes'
p2486
aI1245
aa(lp2487
S'remembrance'
p2488
aI1246
aa(lp2489
S'betray'
p2490
aI1247
aa(lp2491
S'wondrous'
p2492
aI1248
aa(lp2493
S'meet'
p2494
aI1249
aa(lp2495
S"true'"
p2496
aI1250
aa(lp2497
S'stop'
p2498
aI1251
aa(lp2499
S'fond'
p2500
aI1252
aa(lp2501
S'forfeit'
p2502
aI1253
aa(lp2503
S'mansion'
p2504
aI1254
aa(lp2505
S'husbandry'
p2506
aI1255
aa(lp2507
S'seems'
p2508
aI1256
aa(lp2509
S'bareness'
p2510
aI1257
aa(lp2511
S'unfather'
p2512
aI1258
aa(lp2513
S'neglect'
p2514
aI1259
aa(lp2515
S'rise'
p2516
aI1260
aa(lp2517
S'chase'
p2518
aI1261
aa(lp2519
S'gaze'
p2520
aI1262
aa(lp2521
S'broke'
p2522
aI1263
aa(lp2523
S'blushing'
p2524
aI1264
aa(lp2525
S'prevent'
p2526
aI1265
aa(lp2527
S'dyed'
p2528
aI1266
aa(lp2529
S'niggard'
p2530
aI1267
aa(lp2531
S'deceive'
p2532
aI1268
aa(lp2533
S'leads'
p2534
aI1269
aa(lp2535
S'hideous'
p2536
aI1270
aa(lp2537
S'lily'
p2538
aI1271
aa(lp2539
S'usurer'
p2540
aI1272
aa(lp2541
S'bounteous'
p2542
aI1273
aa(lp2543
S'womb'
p2544
aI1274
aa(lp2545
S'sport'
p2546
aI1275
aa(lp2547
S'willing'
p2548
aI1276
aa(lp2549
S'middle'
p2550
aI1277
aa(lp2551
S'finds'
p2552
aI1278
aa(lp2553
S'adjunct'
p2554
aI1279
aa(lp2555
S'humour'
p2556
aI1280
aa(lp2557
S'hawks'
p2558
aI1281
aa(lp2559
S'climb'
p2560
aI1282
aa(lp2561
S'hill'
p2562
aI1283
aa(lp2563
S'alas'
p2564
aI1284
aa(lp2565
S'depends'
p2566
aI1285
aa(lp2567
S'press'
p2568
aI1286
aa(lp2569
S'adore'
p2570
aI1287
aa(lp2571
S'highmost'
p2572
aI1288
aa(lp2573
S'car'
p2574
aI1289
aa(lp2575
S'bow'
p2576
aI1290
aa(lp2577
S'feeble'
p2578
aI1291
aa(lp2579
S'appearing'
p2580
aI1292
aa(lp2581
S'homage'
p2582
aI1293
aa(lp2583
S'breed'
p2584
aI1294
aa(lp2585
S'sweetness'
p2586
aI1295
aa(lp2587
S'dote'
p2588
aI1296
aa(lp2589
S'despise'
p2590
aI1297
aa(lp2591
S'excellence'
p2592
aI1298
aa(lp2593
S'ears'
p2594
aI1299
aa(lp2595
S'depart'
p2596
aI1300
aa(lp2597
S'divine'
p2598
aI1301
aa(lp2599
S'orient'
p2600
aI1302
aa(lp2601
S'frailties'
p2602
aI1303
aa(lp2603
S'creation'
p2604
aI1304
aa(lp2605
S'lifts'
p2606
aI1305
aa(lp2607
S'burning'
p2608
aI1306
aa(lp2609
S'deceived'
p2610
aI1307
aa(lp2611
S'bred'
p2612
aI1308
aa(lp2613
S'warm'
p2614
aI1309
aa(lp2615
S'cupid'
p2616
aI1310
aa(lp2617
S'lusty'
p2618
aI1311
aa(lp2619
S'vows'
p2620
aI1312
aa(lp2621
S'borne'
p2622
aI1313
aa(lp2623
S'doubting'
p2624
aI1314
aa(lp2625
S'bounty'
p2626
aI1315
aa(lp2627
S'untrue'
p2628
aI1316
aa(lp2629
S'growest'
p2630
aI1317
aa(lp2631
S'counting'
p2632
aI1318
aa(lp2633
S'maladies'
p2634
aI1319
aa(lp2635
S'possessing'
p2636
aI1320
aa(lp2637
S'alters'
p2638
aI1321
aa(lp2639
S'tells'
p2640
aI1322
aa(lp2641
S'urge'
p2642
aI1323
aa(lp2643
S'accuse'
p2644
aI1324
aa(lp2645
S'lofty'
p2646
aI1325
aa(lp2647
S'learning'
p2648
aI1326
aa(lp2649
S'brave'
p2650
aI1327
aa(lp2651
S'word'
p2652
aI1328
aa(lp2653
S'shun'
p2654
aI1329
aa(lp2655
S'fever'
p2656
aI1330
aa(lp2657
S'whereon'
p2658
aI1331
aa(lp2659
S'feed'
p2660
aI1332
aa(lp2661
S'level'
p2662
aI1333
aa(lp2663
S'glance'
p2664
aI1334
aa(lp2665
S'aside'
p2666
aI1335
aa(lp2667
S'canopy'
p2668
aI1336
aa(lp2669
S'violet'
p2670
aI1337
aa(lp2671
S'compounds'
p2672
aI1338
aa(lp2673
S'shaken'
p2674
aI1339
aa(lp2675
S'noted'
p2676
aI1340
aa(lp2677
S'folly'
p2678
aI1341
aa(lp2679
S'sickle'
p2680
aI1342
aa(lp2681
S'unknown'
p2682
aI1343
aa(lp2683
S'question'
p2684
aI1344
aa(lp2685
S'built'
p2686
aI1345
aa(lp2687
S'wastes'
p2688
aI1346
aa(lp2689
S'healthful'
p2690
aI1347
aa(lp2691
S'asleep'
p2692
aI1348
aa(lp2693
S'presence'
p2694
aI1349
aa(lp2695
S'seal'
p2696
aI1350
aa(lp2697
S'bail'
p2698
aI1351
aa(lp2699
S'added'
p2700
aI1352
aa(lp2701
S'bud'
p2702
aI1353
aa(lp2703
S'silver'
p2704
aI1354
aa(lp2705
S'peace'
p2706
aI1355
aa(lp2707
S'wise'
p2708
aI1356
aa(lp2709
S'showers'
p2710
aI1357
aa(lp2711
S'creatures'
p2712
aI1358
aa(lp2713
S'diseased'
p2714
aI1359
aa(lp2715
S'content'
p2716
aI1360
aa(lp2717
S'policy'
p2718
aI1361
aa(lp2719
S'nay'
p2720
aI1362
aa(lp2721
S'hopes'
p2722
aI1363
aa(lp2723
S'thereby'
p2724
aI1364
aa(lp2725
S'riper'
p2726
aI1365
aa(lp2727
S'contracted'
p2728
aI1366
aa(lp2729
S'devise'
p2730
aI1367
aa(lp2731
S'ignorance'
p2732
aI1368
aa(lp2733
S'copy'
p2734
aI1369
aa(lp2735
S"'twixt"
p2736
aI1370
aa(lp2737
S'churl'
p2738
aI1371
aa(lp2739
S'telling'
p2740
aI1372
aa(lp2741
S'goodness'
p2742
aI1373
aa(lp2743
S'clock'
p2744
aI1374
aa(lp2745
S'nurseth'
p2746
aI1375
aa(lp2747
S'excess'
p2748
aI1376
aa(lp2749
S'uncertain'
p2750
aI1377
aa(lp2751
S'unear'
p2752
aI1378
aa(lp2753
S'beguile'
p2754
aI1379
aa(lp2755
S'suborn'
p2756
aI1380
aa(lp2757
S'informer'
p2758
aI1381
aa(lp2759
S'unbless'
p2760
aI1382
aa(lp2761
S'costly'
p2762
aI1383
aa(lp2763
S'inheritors'
p2764
aI1384
aa(lp2765
S'preserve'
p2766
aI1385
aa(lp2767
S'charge'
p2768
aI1386
aa(lp2769
S'disease'
p2770
aI1387
aa(lp2771
S'disdains'
p2772
aI1388
aa(lp2773
S'tillage'
p2774
aI1389
aa(lp2775
S'arising'
p2776
aI1390
aa(lp2777
S'powers'
p2778
aI1391
aa(lp2779
S'lark'
p2780
aI1392
aa(lp2781
S'vassalage'
p2782
aI1393
aa(lp2783
S'written'
p2784
aI1394
aa(lp2785
S'cools'
p2786
aI1395
aa(lp2787
S'censures'
p2788
aI1396
aa(lp2789
S'centre'
p2790
aI1397
aa(lp2791
S'knit'
p2792
aI1398
aa(lp2793
S'correspondence'
p2794
aI1399
aa(lp2795
S'random'
p2796
aI1400
aa(lp2797
S'madmen'
p2798
aI1401
aa(lp2799
S'discourse'
p2800
aI1402
aa(lp2801
S'unrest'
p2802
aI1403
aa(lp2803
S'rebel'
p2804
aI1404
aa(lp2805
S'frantic'
p2806
aI1405
aa(lp2807
S'except'
p2808
aI1406
aa(lp2809
S'renewest'
p2810
aI1407
aa(lp2811
S'despising'
p2812
aI1408
aa(lp2813
S"'not"
p2814
aI1409
aa(lp2815
S'viewest'
p2816
aI1410
aa(lp2817
S'array'
p2818
aI1411
aa(lp2819
S'desperate'
p2820
aI1412
aa(lp2821
S'lord'
p2822
aI1413
aa(lp2823
S'prescriptions'
p2824
aI1414
aa(lp2825
S'angry'
p2826
aI1415
aa(lp2827
S'dearth'
p2828
aI1416
aa(lp2829
S'physician'
p2830
aI1417
aa(lp2831
S'sickly'
p2832
aI1418
aa(lp2833
S'fools'
p2834
aI1419
aa(lp2835
S'longing'
p2836
aI1420
aa(lp2837
S'woeful'
p2838
aI1421
aa(lp2839
S'saying'
p2840
aI1422
aa(lp2841
S'profitless'
p2842
aI1423
aa(lp2843
S'loud'
p2844
aI1424
aa(lp2845
S'peep'
p2846
aI1425
aa(lp2847
S'crying'
p2848
aI1426
aa(lp2849
S'sums'
p2850
aI1427
aa(lp2851
S'selling'
p2852
aI1428
aa(lp2853
S'suggest'
p2854
aI1429
aa(lp2855
S'wrack'
p2856
aI1430
aa(lp2857
S'largess'
p2858
aI1431
aa(lp2859
S'traffic'
p2860
aI1432
aa(lp2861
S'sought'
p2862
aI1433
aa(lp2863
S'politic'
p2864
aI1434
aa(lp2865
S'worser'
p2866
aI1435
aa(lp2867
S'female'
p2868
aI1436
aa(lp2869
S'tempteth'
p2870
aI1437
aa(lp2871
S'frank'
p2872
aI1438
aa(lp2873
S'saint'
p2874
aI1439
aa(lp2875
S'pray'
p2876
aI1440
aa(lp2877
S'afar'
p2878
aI1441
aa(lp2879
S'saved'
p2880
aI1442
aa(lp2881
S'prizing'
p2882
aI1443
aa(lp2883
S'onwards'
p2884
aI1444
aa(lp2885
S"th'"
p2886
aI1445
aa(lp2887
S'flow'
p2888
aI1446
aa(lp2889
S'busy'
p2890
aI1447
aa(lp2891
S'goest'
p2892
aI1448
aa(lp2893
S'drown'
p2894
aI1449
aa(lp2895
S'woes'
p2896
aI1450
aa(lp2897
S'perspective'
p2898
aI1451
aa(lp2899
S'glazed'
p2900
aI1452
aa(lp2901
S'pictured'
p2902
aI1453
aa(lp2903
S'shop'
p2904
aI1454
aa(lp2905
S'acceptable'
p2906
aI1455
aa(lp2907
S'infant'
p2908
aI1456
aa(lp2909
S'runn'
p2910
aI1457
aa(lp2911
S'dross'
p2912
aI1458
aa(lp2913
S'hanging'
p2914
aI1459
aa(lp2915
S'devil'
p2916
aI1460
aa(lp2917
S'wooing'
p2918
aI1461
aa(lp2919
S'bequest'
p2920
aI1462
aa(lp2921
S'mercy'
p2922
aI1463
aa(lp2923
S'breathed'
p2924
aI1464
aa(lp2925
S'fickle'
p2926
aI1465
aa(lp2927
S'painful'
p2928
aI1466
aa(lp2929
S'languish'
p2930
aI1467
aa(lp2931
S'aggravate'
p2932
aI1468
aa(lp2933
S'embassage'
p2934
aI1469
aa(lp2935
S'warrior'
p2936
aI1470
aa(lp2937
S'famoused'
p2938
aI1471
aa(lp2939
S'sigh'
p2940
aI1472
aa(lp2941
S'chiding'
p2942
aI1473
aa(lp2943
S'flown'
p2944
aI1474
aa(lp2945
S'victories'
p2946
aI1475
aa(lp2947
S'impeach'
p2948
aI1476
aa(lp2949
S'gate'
p2950
aI1477
aa(lp2951
S'foil'
p2952
aI1478
aa(lp2953
S'threw'
p2954
aI1479
aa(lp2955
S'drowns'
p2956
aI1480
aa(lp2957
S'dies'
p2958
aI1481
aa(lp2959
S'waning'
p2960
aI1482
aa(lp2961
S'marigold'
p2962
aI1483
aa(lp2963
S'titles'
p2964
aI1484
aa(lp2965
S'purity'
p2966
aI1485
aa(lp2967
S'legacy'
p2968
aI1486
aa(lp2969
S'summon'
p2970
aI1487
aa(lp2971
S'withering'
p2972
aI1488
aa(lp2973
S'terms'
p2974
aI1489
aa(lp2975
S'directly'
p2976
aI1490
aa(lp2977
S'doubt'
p2978
aI1491
aa(lp2979
S'sessions'
p2980
aI1492
aa(lp2981
S'loveliness'
p2982
aI1493
aa(lp2983
S'buy'
p2984
aI1494
aa(lp2985
S"princes'"
p2986
aI1495
aa(lp2987
S'favourites'
p2988
aI1496
aa(lp2989
S'spread'
p2990
aI1497
aa(lp2991
S'unthrifty'
p2992
aI1498
aa(lp2993
S'heats'
p2994
aI1499
aa(lp2995
S'seconds'
p2996
aI1500
aa(lp2997
S'falsely'
p2998
aI1501
aa(lp2999
S'twire'
p3000
aI1502
aa(lp3001
S'seething'
p3002
aI1503
aa(lp3003
S'livery'
p3004
aI1504
aa(lp3005
S'rising'
p3006
aI1505
aa(lp3007
S'drudge'
p3008
aI1506
aa(lp3009
S'darkness'
p3010
aI1507
aa(lp3011
S'endure'
p3012
aI1508
aa(lp3013
S'savour'
p3014
aI1509
aa(lp3015
S'imaginary'
p3016
aI1510
aa(lp3017
S'presents'
p3018
aI1511
aa(lp3019
S'fountain'
p3020
aI1512
aa(lp3021
S'forgoing'
p3022
aI1513
aa(lp3023
S'field'
p3024
aI1514
aa(lp3025
S'trenches'
p3026
aI1515
aa(lp3027
S'compound'
p3028
aI1516
aa(lp3029
S"'love'"
p3030
aI1517
aa(lp3031
S'stays'
p3032
aI1518
aa(lp3033
S'gazed'
p3034
aI1519
aa(lp3035
S'sparkling'
p3036
aI1520
aa(lp3037
S'treason'
p3038
aI1521
aa(lp3039
S'famine'
p3040
aI1522
aa(lp3041
S'withal'
p3042
aI1523
aa(lp3043
S'thrivers'
p3044
aI1524
aa(lp3045
S'pitiful'
p3046
aI1525
aa(lp3047
S'trial'
p3048
aI1526
aa(lp3049
S'cheater'
p3050
aI1527
aa(lp3051
S'intend'
p3052
aI1528
aa(lp3053
S'fired'
p3054
aI1529
aa(lp3055
S'betraying'
p3056
aI1530
aa(lp3057
S'foe'
p3058
aI1531
aa(lp3059
S'bases'
p3060
aI1532
aa(lp3061
S'zealous'
p3062
aI1533
aa(lp3063
S'gild'
p3064
aI1534
aa(lp3065
S'nobler'
p3066
aI1535
aa(lp3067
S'drooping'
p3068
aI1536
aa(lp3069
S'dig'
p3070
aI1537
aa(lp3071
S'swearing'
p3072
aI1538
aa(lp3073
S'thrall'
p3074
aI1539
aa(lp3075
S'breach'
p3076
aI1540
aa(lp3077
S'gaudy'
p3078
aI1541
aa(lp3079
S'plight'
p3080
aI1542
aa(lp3081
S'debarr'
p3082
aI1543
aa(lp3083
S'oppression'
p3084
aI1544
aa(lp3085
S'eased'
p3086
aI1545
aa(lp3087
S'twenty'
p3088
aI1546
aa(lp3089
S'glutton'
p3090
aI1547
aa(lp3091
S'misuse'
p3092
aI1548
aa(lp3093
S'buriest'
p3094
aI1549
aa(lp3095
S'honest'
p3096
aI1550
aa(lp3097
S'consent'
p3098
aI1551
aa(lp3099
S'enlighten'
p3100
aI1552
aa(lp3101
S'niggarding'
p3102
aI1553
aa(lp3103
S'blindness'
p3104
aI1554
aa(lp3105
S'complain'
p3106
aI1555
aa(lp3107
S'herald'
p3108
aI1556
aa(lp3109
S'maid'
p3110
aI1557
aa(lp3111
S'ghastly'
p3112
aI1558
aa(lp3113
S'ruining'
p3114
aI1559
aa(lp3115
S'beseige'
p3116
aI1560
aa(lp3117
S'valley'
p3118
aI1561
aa(lp3119
S'act'
p3120
aI1562
aa(lp3121
S'quickly'
p3122
aI1563
aa(lp3123
S'forty'
p3124
aI1564
aa(lp3125
S'kindling'
p3126
aI1565
aa(lp3127
S'rent'
p3128
aI1566
aa(lp3129
S'torn'
p3130
aI1567
aa(lp3131
S'vowing'
p3132
aI1568
aa(lp3133
S'paying'
p3134
aI1569
aa(lp3135
S'dwellers'
p3136
aI1570
aa(lp3137
S'quiet'
p3138
aI1571
aa(lp3139
S'swart'
p3140
aI1572
aa(lp3141
S"oaths'"
p3142
aI1573
aa(lp3143
S'dian'
p3144
aI1574
aa(lp3145
S'thither'
p3146
aI1575
aa(lp3147
S'raised'
p3148
aI1576
aa(lp3149
S'expired'
p3150
aI1577
aa(lp3151
S'featured'
p3152
aI1578
aa(lp3153
S'oblation'
p3154
aI1579
aa(lp3155
S'wishing'
p3156
aI1580
aa(lp3157
S'partake'
p3158
aI1581
aa(lp3159
S'naked'
p3160
aI1582
aa(lp3161
S'votary'
p3162
aI1583
aa(lp3163
S'tripping'
p3164
aI1584
aa(lp3165
S'bestow'
p3166
aI1585
aa(lp3167
S'whatsoever'
p3168
aI1586
aa(lp3169
S'chaste'
p3170
aI1587
aa(lp3171
S'fate'
p3172
aI1588
aa(lp3173
S'nymphs'
p3174
aI1589
aa(lp3175
S'guides'
p3176
aI1590
aa(lp3177
S'couldst'
p3178
aI1591
aa(lp3179
S'inflaming'
p3180
aI1592
aa(lp3181
S'hateth'
p3182
aI1593
aa(lp3183
S'legions'
p3184
aI1594
aa(lp3185
S'sleeping'
p3186
aI1595
aa(lp3187
S'unworthiness'
p3188
aI1596
aa(lp3189
S'clears'
p3190
aI1597
aa(lp3191
S'cool'
p3192
aI1598
aa(lp3193
S'aright'
p3194
aI1599
aa(lp3195
S'succession'
p3196
aI1600
aa(lp3197
S'quenched'
p3198
aI1601
aa(lp3199
S'proving'
p3200
aI1602
aa(lp3201
S'desiring'
p3202
aI1603
aa(lp3203
S'disarm'
p3204
aI1604
aa(lp3205
S'denote'
p3206
aI1605
aa(lp3207
S'virgin'
p3208
aI1606
aa(lp3209
S"'no"
p3210
aI1607
aa(lp3211
S'watching'
p3212
aI1608
aa(lp3213
S'marvel'
p3214
aI1609
aa(lp3215
S'mix'
p3216
aI1610
aa(lp3217
S'mistake'
p3218
aI1611
aa(lp3219
S'sees'
p3220
aI1612
aa(lp3221
S'fawn'
p3222
aI1613
aa(lp3223
S'points'
p3224
aI1614
aa(lp3225
S'deserved'
p3226
aI1615
aa(lp3227
S'graciously'
p3228
aI1616
aa(lp3229
S'substantial'
p3230
aI1617
aa(lp3231
S'insufficiency'
p3232
aI1618
aa(lp3233
S'brightness'
p3234
aI1619
aa(lp3235
S'outcast'
p3236
aI1620
aa(lp3237
S'sunken'
p3238
aI1621
aa(lp3239
S'refuse'
p3240
aI1622
aa(lp3241
S'warrantize'
p3242
aI1623
aa(lp3243
S'fuel'
p3244
aI1624
aa(lp3245
S'beweep'
p3246
aI1625
aa(lp3247
S'hied'
p3248
aI1626
aa(lp3249
S'neglected'
p3250
aI1627
aa(lp3251
S'honouring'
p3252
aI1628
aa(lp3253
S'exceeds'
p3254
aI1629
aa(lp3255
S'ask'
p3256
aI1630
aa(lp3257
S'begins'
p3258
aI1631
aa(lp3259
S'extern'
p3260
aI1632
aa(lp3261
S'trouble'
p3262
aI1633
aa(lp3263
S'eating'
p3264
aI1634
aa(lp3265
S'little'
p3266
aI1635
aa(lp3267
S'aspect'
p3268
aI1636
aa(lp3269
S'puts'
p3270
aI1637
aa(lp3271
S'apparel'
p3272
aI1638
aa(lp3273
S'bootless'
p3274
aI1639
aa(lp3275
S'lying'
p3276
aI1640
aa(lp3277
S'gazing'
p3278
aI1641
aa(lp3279
S'lour'
p3280
aI1642
aa(lp3281
S'commanded'
p3282
aI1643
aa(lp3283
S'distemper'
p3284
aI1644
aa(lp3285
S'revenge'
p3286
aI1645
aa(lp3287
S'service'
p3288
aI1646
aa(lp3289
S'worship'
p3290
aI1647
aa(lp3291
S'thriftless'
p3292
aI1648
aa(lp3293
S'deaf'
p3294
aI1649
aa(lp3295
S'executor'
p3296
aI1650
aa(lp3297
S'reproving'
p3298
aI1651
aa(lp3299
S'table'
p3300
aI1652
aa(lp3301
S'bait'
p3302
aI1653
aa(lp3303
S'whoever'
p3304
aI1654
aa(lp3305
S'ruinate'
p3306
aI1655
aa(lp3307
S'bliss'
p3308
aI1656
aa(lp3309
S'roof'
p3310
aI1657
aa(lp3311
S'seeking'
p3312
aI1658
aa(lp3313
S'conspire'
p3314
aI1659
aa(lp3315
S'stick'
p3316
aI1660
aa(lp3317
S'taker'
p3318
aI1661
aa(lp3319
S'swallow'
p3320
aI1662
aa(lp3321
S'pupil'
p3322
aI1663
aa(lp3323
S'evident'
p3324
aI1664
aa(lp3325
S'boot'
p3326
aI1665
aa(lp3327
S'unprovident'
p3328
aI1666
aa(lp3329
S'overplus'
p3330
aI1667
aa(lp3331
S'hated'
p3332
aI1668
aa(lp3333
S'hides'
p3334
aI1669
aa(lp3335
S'hunted'
p3336
aI1670
aa(lp3337
S'spacious'
p3338
aI1671
aa(lp3339
S'proposed'
p3340
aI1672
aa(lp3341
S'whole'
p3342
aI1673
aa(lp3343
S'strikes'
p3344
aI1674
aa(lp3345
S'gardens'
p3346
aI1675
aa(lp3347
S'bestowest'
p3348
aI1676
aa(lp3349
S'youngly'
p3350
aI1677
aa(lp3351
S'departest'
p3352
aI1678
aa(lp3353
S'dun'
p3354
aI1679
aa(lp3355
S'breasts'
p3356
aI1680
aa(lp3357
S'snow'
p3358
aI1681
aa(lp3359
S'top'
p3360
aI1682
aa(lp3361
S'wane'
p3362
aI1683
aa(lp3363
S'unset'
p3364
aI1684
aa(lp3365
S'coral'
p3366
aI1685
aa(lp3367
S'bind'
p3368
aI1686
aa(lp3369
S'hearted'
p3370
aI1687
aa(lp3371
S'statute'
p3372
aI1688
aa(lp3373
S'sue'
p3374
aI1689
aa(lp3375
S"lips'"
p3376
aI1690
aa(lp3377
S'liker'
p3378
aI1691
aa(lp3379
S'lodged'
p3380
aI1692
aa(lp3381
S'debtor'
p3382
aI1693
aa(lp3383
S'sits'
p3384
aI1694
aa(lp3385
S'acceptance'
p3386
aI1695
aa(lp3387
S'toward'
p3388
aI1696
aa(lp3389
S"eyes'"
p3390
aI1697
aa(lp3391
S'rough'
p3392
aI1698
aa(lp3393
S'issueless'
p3394
aI1699
aa(lp3395
S'partial'
p3396
aI1700
aa(lp3397
S'darling'
p3398
aI1701
aa(lp3399
S'consumest'
p3400
aI1702
aa(lp3401
S'wet'
p3402
aI1703
aa(lp3403
S'anchor'
p3404
aI1704
aa(lp3405
S'bay'
p3406
aI1705
aa(lp3407
S'forged'
p3408
aI1706
aa(lp3409
S'destroys'
p3410
aI1707
aa(lp3411
S"'thou"
p3412
aI1708
aa(lp3413
S'hooks'
p3414
aI1709
aa(lp3415
S'several'
p3416
aI1710
aa(lp3417
S'dimm'
p3418
aI1711
aa(lp3419
S'declines'
p3420
aI1712
aa(lp3421
S'chance'
p3422
aI1713
aa(lp3423
S'plot'
p3424
aI1714
aa(lp3425
S'sire'
p3426
aI1715
aa(lp3427
S'temperate'
p3428
aI1716
aa(lp3429
S"stores'"
p3430
aI1717
aa(lp3431
S'hap'
p3432
aI1718
aa(lp3433
S'savage'
p3434
aI1719
aa(lp3435
S'user'
p3436
aI1720
aa(lp3437
S'addeth'
p3438
aI1721
aa(lp3439
S'beseechers'
p3440
aI1722
aa(lp3441
S'earthly'
p3442
aI1723
aa(lp3443
S'enjoys'
p3444
aI1724
aa(lp3445
S'papers'
p3446
aI1725
aa(lp3447
S'shifts'
p3448
aI1726
aa(lp3449
S'unthrift'
p3450
aI1727
aa(lp3451
S'admitted'
p3452
aI1728
aa(lp3453
S'receipt'
p3454
aI1729
aa(lp3455
S'private'
p3456
aI1730
aa(lp3457
S'rights'
p3458
aI1731
aa(lp3459
S'stretched'
p3460
aI1732
aa(lp3461
S'metre'
p3462
aI1733
aa(lp3463
S'untold'
p3464
aI1734
aa(lp3465
S'wife'
p3466
aI1735
aa(lp3467
S'makeless'
p3468
aI1736
aa(lp3469
S'bond'
p3470
aI1737
aa(lp3471
S'surety'
p3472
aI1738
aa(lp3473
S'mightier'
p3474
aI1739
aa(lp3475
S'torments'
p3476
aI1740
aa(lp3477
S'semblance'
p3478
aI1741
aa(lp3479
S'ruth'
p3480
aI1742
aa(lp3481
S'sable'
p3482
aI1743
aa(lp3483
S'threefold'
p3484
aI1744
aa(lp3485
S'prison'
p3486
aI1745
aa(lp3487
S'ward'
p3488
aI1746
aa(lp3489
S'sunk'
p3490
aI1747
aa(lp3491
S'determination'
p3492
aI1748
aa(lp3493
S'pitying'
p3494
aI1749
aa(lp3495
S'neck'
p3496
aI1750
aa(lp3497
S'lets'
p3498
aI1751
aa(lp3499
S'house'
p3500
aI1752
aa(lp3501
S'hugely'
p3502
aI1753
aa(lp3503
S'proceeds'
p3504
aI1754
aa(lp3505
S'print'
p3506
aI1755
aa(lp3507
S'uphold'
p3508
aI1756
aa(lp3509
S'stormy'
p3510
aI1757
aa(lp3511
S'gusts'
p3512
aI1758
aa(lp3513
S'grey'
p3514
aI1759
aa(lp3515
S'curls'
p3516
aI1760
aa(lp3517
S'forsaken'
p3518
aI1761
aa(lp3519
S'engross'
p3520
aI1762
aa(lp3521
S'beshrew'
p3522
aI1763
aa(lp3523
S"is't"
p3524
aI1764
aa(lp3525
S'beseem'
p3526
aI1765
aa(lp3527
S'slavery'
p3528
aI1766
aa(lp3529
S'become'
p3530
aI1767
aa(lp3531
S'sober'
p3532
aI1768
aa(lp3533
S'ushers'
p3534
aI1769
aa(lp3535
S'beard'
p3536
aI1770
aa(lp3537
S'bristly'
p3538
aI1771
aa(lp3539
S'bier'
p3540
aI1772
aa(lp3541
S'sheaves'
p3542
aI1773
aa(lp3543
S'girded'
p3544
aI1774
aa(lp3545
S'harder'
p3546
aI1775
aa(lp3547
S'herd'
p3548
aI1776
aa(lp3549
S'east'
p3550
aI1777
aa(lp3551
S'erst'
p3552
aI1778
aa(lp3553
S'trees'
p3554
aI1779
aa(lp3555
S'meant'
p3556
aI1780
aa(lp3557
S'unthrifts'
p3558
aI1781
aa(lp3559
S'convertest'
p3560
aI1782
aa(lp3561
S'damask'
p3562
aI1783
aa(lp3563
S'gaol'
p3564
aI1784
aa(lp3565
S'perforce'
p3566
aI1785
aa(lp3567
S'mortgaged'
p3568
aI1786
aa(lp3569
S'predict'
p3570
aI1787
aa(lp3571
S'reeks'
p3572
aI1788
aa(lp3573
S'threescore'
p3574
aI1789
aa(lp3575
S'derive'
p3576
aI1790
aa(lp3577
S'cease'
p3578
aI1791
aa(lp3579
S'minded'
p3580
aI1792
aa(lp3581
S'groans'
p3582
aI1793
aa(lp3583
S'hairs'
p3584
aI1794
aa(lp3585
S'together'
p3586
aI1795
aa(lp3587
S'restore'
p3588
aI1796
aa(lp3589
S'convert'
p3590
aI1797
aa(lp3591
S'prognosticate'
p3592
aI1798
aa(lp3593
S'covetous'
p3594
aI1799
aa(lp3595
S'wisdom'
p3596
aI1800
aa(lp3597
S'herein'
p3598
aI1801
aa(lp3599
S'rigor'
p3600
aI1802
aa(lp3601
S'harsh'
p3602
aI1803
aa(lp3603
S'thunder'
p3604
aI1804
aa(lp3605
S'pointing'
p3606
aI1805
aa(lp3607
S'err'
p3608
aI1806
aa(lp3609
S'proudly'
p3610
aI1807
aa(lp3611
S'carved'
p3612
aI1808
aa(lp3613
S'cherish'
p3614
aI1809
aa(lp3615
S'tyrannous'
p3616
aI1810
aa(lp3617
S'endow'
p3618
aI1811
aa(lp3619
S'astronomy'
p3620
aI1812
aa(lp3621
S'treads'
p3622
aI1813
aa(lp3623
S"whoe'er"
p3624
aI1814
aa(lp3625
S'perish'
p3626
aI1815
aa(lp3627
S'luck'
p3628
aI1816
aa(lp3629
S'plagues'
p3630
aI1817
aa(lp3631
S'dearths'
p3632
aI1818
aa(lp3633
S"seasons'"
p3634
aI1819
aa(lp3635
S'quality'
p3636
aI1820
aa(lp3637
S'barrenly'
p3638
aI1821
aa(lp3639
S'featureless'
p3640
aI1822
aa(lp3641
S'ordering'
p3642
aI1823
aa(lp3643
S'untrimm'
p3644
aI1824
aa(lp3645
S'stell'
p3646
aI1825
aa(lp3647
S'seemly'
p3648
aI1826
aa(lp3649
S'persuade'
p3650
aI1827
aa(lp3651
S'awards'
p3652
aI1828
aa(lp3653
S'merits'
p3654
aI1829
aa(lp3655
S'brows'
p3656
aI1830
aa(lp3657
S'furrows'
p3658
aI1831
aa(lp3659
S'expiate'
p3660
aI1832
aa(lp3661
S'herself'
p3662
aI1833
aa(lp3663
S'scarlet'
p3664
aI1834
aa(lp3665
S'raiment'
p3666
aI1835
aa(lp3667
S'hearsay'
p3668
aI1836
aa(lp3669
S'ornaments'
p3670
aI1837
aa(lp3671
S'robb'
p3672
aI1838
aa(lp3673
S'elder'
p3674
aI1839
aa(lp3675
S'bereft'
p3676
aI1840
aa(lp3677
S'wary'
p3678
aI1841
aa(lp3679
S'bower'
p3680
aI1842
aa(lp3681
S'prisoner'
p3682
aI1843
aa(lp3683
S'chary'
p3684
aI1844
aa(lp3685
S'sell'
p3686
aI1845
aa(lp3687
S'leese'
p3688
aI1846
aa(lp3689
S'string'
p3690
aI1847
aa(lp3691
S'deface'
p3692
aI1848
aa(lp3693
S'usury'
p3694
aI1849
aa(lp3695
S'raven'
p3696
aI1850
aa(lp3697
S'forbidden'
p3698
aI1851
aa(lp3699
S'delighted'
p3700
aI1852
aa(lp3701
S'prone'
p3702
aI1853
aa(lp3703
S'vial'
p3704
aI1854
aa(lp3705
S'invited'
p3706
aI1855
aa(lp3707
S'huge'
p3708
aI1856
aa(lp3709
S'rondure'
p3710
aI1857
aa(lp3711
S'likeness'
p3712
aI1858
aa(lp3713
S'senses'
p3714
aI1859
aa(lp3715
S'hems'
p3716
aI1860
aa(lp3717
S"o'"
p3718
aI1861
aa(lp3719
S'ragged'
p3720
aI1862
aa(lp3721
S'dissuade'
p3722
aI1863
aa(lp3723
S'foolish'
p3724
aI1864
aa(lp3725
S'candles'
p3726
aI1865
aa(lp3727
S'unsway'
p3728
aI1866
aa(lp3729
S'nurse'
p3730
aI1867
aa(lp3731
S'liquid'
p3732
aI1868
aa(lp3733
S'distillation'
p3734
aI1869
aa(lp3735
S'denied'
p3736
aI1870
aa(lp3737
S'excel'
p3738
aI1871
aa(lp3739
S'fairly'
p3740
aI1872
aa(lp3741
S'books'
p3742
aI1873
aa(lp3743
S'unfair'
p3744
aI1874
aa(lp3745
S'eloquence'
p3746
aI1875
aa(lp3747
S'pitied'
p3748
aI1876
aa(lp3749
S'delay'
p3750
aI1877
aa(lp3751
S'presagers'
p3752
aI1878
aa(lp3753
S'tyrants'
p3754
aI1879
aa(lp3755
S'faring'
p3756
aI1880
aa(lp3757
S'recompense'
p3758
aI1881
aa(lp3759
S'housewife'
p3760
aI1882
aa(lp3761
S'runs'
p3762
aI1883
aa(lp3763
S'feather'
p3764
aI1884
aa(lp3765
S'detain'
p3766
aI1885
aa(lp3767
S'sets'
p3768
aI1886
aa(lp3769
S'minion'
p3770
aI1887
aa(lp3771
S'dispatch'
p3772
aI1888
aa(lp3773
S"o'ercharged"
p3774
aI1889
aa(lp3775
S'quietus'
p3776
aI1890
aa(lp3777
S'resting'
p3778
aI1891
aa(lp3779
S'rite'
p3780
aI1892
aa(lp3781
S'presume'
p3782
aI1893
aa(lp3783
S"o'ersnow"
p3784
aI1894
aa(lp3785
S"beds'"
p3786
aI1895
aa(lp3787
S'unperfect'
p3788
aI1896
aa(lp3789
S'frost'
p3790
aI1897
aa(lp3791
S'actor'
p3792
aI1898
aa(lp3793
S'stage'
p3794
aI1899
aa(lp3795
S'fairing'
p3796
aI1900
aa(lp3797
S'sap'
p3798
aI1901
aa(lp3799
S'successive'
p3800
aI1902
aa(lp3801
S'revenues'
p3802
aI1903
aa(lp3803
S'rents'
p3804
aI1904
aa(lp3805
S'counted'
p3806
aI1905
aa(lp3807
S'importune'
p3808
aI1906
aa(lp3809
S'weakens'
p3810
aI1907
aa(lp3811
S'deserve'
p3812
aI1908
aa(lp3813
S'ceremony'
p3814
aI1909
aa(lp3815
S'suited'
p3816
aI1910
aa(lp3817
S'gems'
p3818
aI1911
aa(lp3819
S'happies'
p3820
aI1912
aa(lp3821
S'jaws'
p3822
aI1913
aa(lp3823
S'simply'
p3824
aI1914
aa(lp3825
S'sadly'
p3826
aI1915
aa(lp3827
S'credit'
p3828
aI1916
aa(lp3829
S'brood'
p3830
aI1917
aa(lp3831
S'sides'
p3832
aI1918
aa(lp3833
S'teeth'
p3834
aI1919
aa(lp3835
S'tiger'
p3836
aI1920
aa(lp3837
S'suppress'
p3838
aI1921
aa(lp3839
S'phoenix'
p3840
aI1922
aa(lp3841
S'justify'
p3842
aI1923
aa(lp3843
S'unjust'
p3844
aI1924
aa(lp3845
S'sorry'
p3846
aI1925
aa(lp3847
S'habit'
p3848
aI1926
aa(lp3849
S'fleets'
p3850
aI1927
aa(lp3851
S'chips'
p3852
aI1928
aa(lp3853
S'footed'
p3854
aI1929
aa(lp3855
S'dancing'
p3856
aI1930
aa(lp3857
S'heinous'
p3858
aI1931
aa(lp3859
S'devour'
p3860
aI1932
aa(lp3861
S'subtleties'
p3862
aI1933
aa(lp3863
S'walk'
p3864
aI1934
aa(lp3865
S'paws'
p3866
aI1935
aa(lp3867
S'erred'
p3868
aI1936
aa(lp3869
S'singleness'
p3870
aI1937
aa(lp3871
S'offend'
p3872
aI1938
aa(lp3873
S'owest'
p3874
aI1939
aa(lp3875
S'unions'
p3876
aI1940
aa(lp3877
S'brag'
p3878
aI1941
aa(lp3879
S'wander'
p3880
aI1942
aa(lp3881
S'tuned'
p3882
aI1943
aa(lp3883
S'gait'
p3884
aI1944
aa(lp3885
S'transferr'
p3886
aI1945
aa(lp3887
S'swears'
p3888
aI1946
aa(lp3889
S'devouring'
p3890
aI1947
aa(lp3891
S'annoy'
p3892
aI1948
aa(lp3893
S'untutor'
p3894
aI1949
aa(lp3895
S'lion'
p3896
aI1950
aa(lp3897
S'gladly'
p3898
aI1951
aa(lp3899
S'unlearned'
p3900
aI1952
aa(lp3901
S'carve'
p3902
aI1953
aa(lp3903
S'untainted'
p3904
aI1954
aa(lp3905
S'loan'
p3906
aI1955
aa(lp3907
S'adding'
p3908
aI1956
aa(lp3909
S'amazeth'
p3910
aI1957
aa(lp3911
S'physicians'
p3912
aI1958
aa(lp3913
S'wiry'
p3914
aI1959
aa(lp3915
S'gently'
p3916
aI1960
aa(lp3917
S'madness'
p3918
aI1961
aa(lp3919
S'leaving'
p3920
aI1962
aa(lp3921
S'wresting'
p3922
aI1963
aa(lp3923
S'defeated'
p3924
aI1964
aa(lp3925
S'slanderers'
p3926
aI1965
aa(lp3927
S'succeeding'
p3928
aI1966
aa(lp3929
S'prick'
p3930
aI1967
aa(lp3931
S'believed'
p3932
aI1968
aa(lp3933
S'refigured'
p3934
aI1969
aa(lp3935
S'stirr'
p3936
aI1970
aa(lp3937
S'pleased'
p3938
aI1971
aa(lp3939
S'couplement'
p3940
aI1972
aa(lp3941
S'slandering'
p3942
aI1973
aa(lp3943
S'tune'
p3944
aI1974
aa(lp3945
S'news'
p3946
aI1975
aa(lp3947
S'steals'
p3948
aI1976
aa(lp3949
S'testy'
p3950
aI1977
aa(lp3951
S"'hues'"
p3952
aI1978
aa(lp3953
S'situation'
p3954
aI1979
aa(lp3955
S'tickled'
p3956
aI1980
aa(lp3957
S'slay'
p3958
aI1981
aa(lp3959
S'boldness'
p3960
aI1982
aa(lp3961
S'reap'
p3962
aI1983
aa(lp3963
S'passion'
p3964
aI1984
aa(lp3965
S'harvest'
p3966
aI1985
aa(lp3967
S'shifting'
p3968
aI1986
aa(lp3969
S'defense'
p3970
aI1987
aa(lp3971
S'dart'
p3972
aI1988
aa(lp3973
S'outright'
p3974
aI1989
aa(lp3975
S'rolling'
p3976
aI1990
aa(lp3977
S'object'
p3978
aI1991
aa(lp3979
S'whereupon'
p3980
aI1992
aa(lp3981
S'gazeth'
p3982
aI1993
aa(lp3983
S'rid'
p3984
aI1994
aa(lp3985
S'manner'
p3986
aI1995
aa(lp3987
S"'ve"
p3988
aI1996
aa(lp3989
S'usest'
p3990
aI1997
aa(lp3991
S'afresh'
p3992
aI1998
aa(lp3993
S'hounds'
p3994
aI1999
aa(lp3995
S'rearward'
p3996
aI2000
aa(lp3997
S'conquer'
p3998
aI2001
aa(lp3999
S'windy'
p4000
aI2002
aa(lp4001
S'rainy'
p4002
aI2003
aa(lp4003
S'linger'
p4004
aI2004
aa(lp4005
S'purposed'
p4006
aI2005
aa(lp4007
S'overthrow'
p4008
aI2006
aa(lp4009
S'griefs'
p4010
aI2007
aa(lp4011
S'onset'
p4012
aI2008
aa(lp4013
S'strains'
p4014
aI2009
aa(lp4015
S'compared'
p4016
aI2010
aa(lp4017
S"bodies'"
p4018
aI2011
aa(lp4019
S'garments'
p4020
aI2012
aa(lp4021
S'fangled'
p4022
aI2013
aa(lp4023
S'particulars'
p4024
aI2014
aa(lp4025
S'purple'
p4026
aI2015
aa(lp4027
S'richer'
p4028
aI2016
aa(lp4029
S'prouder'
p4030
aI2017
aa(lp4031
S"garments'"
p4032
aI2018
aa(lp4033
S'horses'
p4034
aI2019
aa(lp4035
S'depend'
p4036
aI2020
aa(lp4037
S'inconstant'
p4038
aI2021
aa(lp4039
S'revolt'
p4040
aI2022
aa(lp4041
S'supposing'
p4042
aI2023
aa(lp4043
S'hatred'
p4044
aI2024
aa(lp4045
S'history'
p4046
aI2025
aa(lp4047
S'moods'
p4048
aI2026
aa(lp4049
S'frowns'
p4050
aI2027
aa(lp4051
S'decree'
p4052
aI2028
aa(lp4053
S'workings'
p4054
aI2029
aa(lp4055
S"'scoped"
p4056
aI2030
aa(lp4057
S'drop'
p4058
aI2031
aa(lp4059
S'join'
p4060
aI2032
aa(lp4061
S'debate'
p4062
aI2033
aa(lp4063
S'affable'
p4064
aI2034
aa(lp4065
S'familiar'
p4066
aI2035
aa(lp4067
S'ghost'
p4068
aI2036
aa(lp4069
S'gulls'
p4070
aI2037
aa(lp4071
S'intelligence'
p4072
aI2038
aa(lp4073
S'victors'
p4074
aI2039
aa(lp4075
S'countenance'
p4076
aI2040
aa(lp4077
S'enfeebled'
p4078
aI2041
aa(lp4079
S'farewell'
p4080
aI2042
aa(lp4081
S'estimate'
p4082
aI2043
aa(lp4083
S'releasing'
p4084
aI2044
aa(lp4085
S'determinate'
p4086
aI2045
aa(lp4087
S'granting'
p4088
aI2046
aa(lp4089
S'deserving'
p4090
aI2047
aa(lp4091
S'patent'
p4092
aI2048
aa(lp4093
S'swerving'
p4094
aI2049
aa(lp4095
S'mistaking'
p4096
aI2050
aa(lp4097
S'misprision'
p4098
aI2051
aa(lp4099
S'waking'
p4100
aI2052
aa(lp4101
S'disposed'
p4102
aI2053
aa(lp4103
S'weakness'
p4104
aI2054
aa(lp4105
S'conceal'
p4106
aI2055
aa(lp4107
S'attainted'
p4108
aI2056
aa(lp4109
S'gainer'
p4110
aI2057
aa(lp4111
S'comment'
p4112
aI2058
aa(lp4113
S'lameness'
p4114
aI2059
aa(lp4115
S'halt'
p4116
aI2060
aa(lp4117
S'strangle'
p4118
aI2061
aa(lp4119
S'profane'
p4120
aI2062
aa(lp4121
S'eve'
p4122
aI2063
aa(lp4123
S'apple'
p4124
aI2064
aa(lp4125
S'hurt'
p4126
aI2065
aa(lp4127
S'lambs'
p4128
aI2066
aa(lp4129
S'wolf'
p4130
aI2067
aa(lp4131
S'lamb'
p4132
aI2068
aa(lp4133
S'translate'
p4134
aI2069
aa(lp4135
S'gazers'
p4136
aI2070
aa(lp4137
S'mightst'
p4138
aI2071
aa(lp4139
S'fleeting'
p4140
aI2072
aa(lp4141
S'freezings'
p4142
aI2073
aa(lp4143
S'felt'
p4144
aI2074
aa(lp4145
S'december'
p4146
aI2075
aa(lp4147
S'teeming'
p4148
aI2076
aa(lp4149
S'big'
p4150
aI2077
aa(lp4151
S'wanton'
p4152
aI2078
aa(lp4153
S'wombs'
p4154
aI2079
aa(lp4155
S"lords'"
p4156
aI2080
aa(lp4157
S'abundant'
p4158
aI2081
aa(lp4159
S'orphans'
p4160
aI2082
aa(lp4161
S'fruit'
p4162
aI2083
aa(lp4163
S'pleasures'
p4164
aI2084
aa(lp4165
S'cheer'
p4166
aI2085
aa(lp4167
S'dreading'
p4168
aI2086
aa(lp4169
S'pied'
p4170
aI2087
aa(lp4171
S'trim'
p4172
aI2088
aa(lp4173
S'saturn'
p4174
aI2089
aa(lp4175
S'laugh'
p4176
aI2090
aa(lp4177
S'different'
p4178
aI2091
aa(lp4179
S'lap'
p4180
aI2092
aa(lp4181
S'vermilion'
p4182
aI2093
aa(lp4183
S'figures'
p4184
aI2094
aa(lp4185
S'forward'
p4186
aI2095
aa(lp4187
S'stem'
p4188
aI2096
aa(lp4189
S'translated'
p4190
aI2097
aa(lp4191
S'unmoved'
p4192
aI2098
aa(lp4193
S'truths'
p4194
aI2099
aa(lp4195
S'rightly'
p4196
aI2100
aa(lp4197
S'inherit'
p4198
aI2101
aa(lp4199
S'lords'
p4200
aI2102
aa(lp4201
S'owners'
p4202
aI2103
aa(lp4203
S'stewards'
p4204
aI2104
aa(lp4205
S'outbraves'
p4206
aI2105
aa(lp4207
S'dignity'
p4208
aI2106
aa(lp4209
S'hits'
p4210
aI2107
aa(lp4211
S'sourest'
p4212
aI2108
aa(lp4213
S'lilies'
p4214
aI2109
aa(lp4215
S'fester'
p4216
aI2110
aa(lp4217
S'fragrant'
p4218
aI2111
aa(lp4219
S'spot'
p4220
aI2112
aa(lp4221
S'budding'
p4222
aI2113
aa(lp4223
S'enclose'
p4224
aI2114
aa(lp4225
S'dispraise'
p4226
aI2115
aa(lp4227
S'naming'
p4228
aI2116
aa(lp4229
S'blesses'
p4230
aI2117
aa(lp4231
S'vices'
p4232
aI2118
aa(lp4233
S'habitation'
p4234
aI2119
aa(lp4235
S'chose'
p4236
aI2120
aa(lp4237
S'veil'
p4238
aI2121
aa(lp4239
S'heed'
p4240
aI2122
aa(lp4241
S'hardest'
p4242
aI2123
aa(lp4243
S'wantonness'
p4244
aI2124
aa(lp4245
S'resort'
p4246
aI2125
aa(lp4247
S'finger'
p4248
aI2126
aa(lp4249
S'throned'
p4250
aI2127
aa(lp4251
S'queen'
p4252
aI2128
aa(lp4253
S'astonished'
p4254
aI2129
aa(lp4255
S'compeers'
p4256
aI2130
aa(lp4257
S'struck'
p4258
aI2131
aa(lp4259
S'deliver'
p4260
aI2132
aa(lp4261
S'profit'
p4262
aI2133
aa(lp4263
S'enrich'
p4264
aI2134
aa(lp4265
S'invoked'
p4266
aI2135
aa(lp4267
S'assistance'
p4268
aI2136
aa(lp4269
S'alien'
p4270
aI2137
aa(lp4271
S'poesy'
p4272
aI2138
aa(lp4273
S'disperse'
p4274
aI2139
aa(lp4275
S'aloft'
p4276
aI2140
aa(lp4277
S'fly'
p4278
aI2141
aa(lp4279
S'feathers'
p4280
aI2142
aa(lp4281
S'learned'
p4282
aI2143
aa(lp4283
S'wing'
p4284
aI2144
aa(lp4285
S'compile'
p4286
aI2145
aa(lp4287
S'influence'
p4288
aI2146
aa(lp4289
S'arts'
p4290
aI2147
aa(lp4291
S'graced'
p4292
aI2148
aa(lp4293
S'advance'
p4294
aI2149
aa(lp4295
S'wounded'
p4296
aI2150
aa(lp4297
S'deserves'
p4298
aI2151
aa(lp4299
S'travail'
p4300
aI2152
aa(lp4301
S'worthier'
p4302
aI2153
aa(lp4303
S'stole'
p4304
aI2154
aa(lp4305
S'behavior'
p4306
aI2155
aa(lp4307
S'afford'
p4308
aI2156
aa(lp4309
S'thank'
p4310
aI2157
aa(lp4311
S'owes'
p4312
aI2158
aa(lp4313
S'faint'
p4314
aI2159
aa(lp4315
S'thereof'
p4316
aI2160
aa(lp4317
S'spends'
p4318
aI2161
aa(lp4319
S'offices'
p4320
aI2162
aa(lp4321
S'nursed'
p4322
aI2163
aa(lp4323
S'inferior'
p4324
aI2164
aa(lp4325
S'blanks'
p4326
aI2165
aa(lp4327
S'season'
p4328
aI2166
aa(lp4329
S'strife'
p4330
aI2167
aa(lp4331
S'miser'
p4332
aI2168
aa(lp4333
S'enjoyer'
p4334
aI2169
aa(lp4335
S'filching'
p4336
aI2170
aa(lp4337
S'feasting'
p4338
aI2171
aa(lp4339
S'clean'
p4340
aI2172
aa(lp4341
S'starved'
p4342
aI2173
aa(lp4343
S'pursuing'
p4344
aI2174
aa(lp4345
S'surfeit'
p4346
aI2175
aa(lp4347
S'gluttoning'
p4348
aI2176
aa(lp4349
S'variation'
p4350
aI2177
aa(lp4351
S'methods'
p4352
aI2178
aa(lp4353
S'showing'
p4354
aI2179
aa(lp4355
S'proceed'
p4356
aI2180
aa(lp4357
S'always'
p4358
aI2181
aa(lp4359
S'dressing'
p4360
aI2182
aa(lp4361
S'spending'
p4362
aI2183
aa(lp4363
S'already'
p4364
aI2184
aa(lp4365
S'bosoms'
p4366
aI2185
aa(lp4367
S'vacant'
p4368
aI2186
aa(lp4369
S'imprint'
p4370
aI2187
aa(lp4371
S'mouthed'
p4372
aI2188
aa(lp4373
S'graves'
p4374
aI2189
aa(lp4375
S'shady'
p4376
aI2190
aa(lp4377
S'stealth'
p4378
aI2191
aa(lp4379
S'progress'
p4380
aI2192
aa(lp4381
S'contain'
p4382
aI2193
aa(lp4383
S'commit'
p4384
aI2194
aa(lp4385
S'proudest'
p4386
aI2195
aa(lp4387
S'broad'
p4388
aI2196
aa(lp4389
S'inhearse'
p4390
aI2197
aa(lp4391
S'slept'
p4392
aI2198
aa(lp4393
S'modern'
p4394
aI2199
aa(lp4395
S'impute'
p4396
aI2200
aa(lp4397
S'impair'
p4398
aI2201
aa(lp4399
S'confine'
p4400
aI2202
aa(lp4401
S'immured'
p4402
aI2203
aa(lp4403
S'equal'
p4404
aI2204
aa(lp4405
S'lean'
p4406
aI2205
aa(lp4407
S'penury'
p4408
aI2206
aa(lp4409
S'writes'
p4410
aI2207
aa(lp4411
S'dignifies'
p4412
aI2208
aa(lp4413
S'counterpart'
p4414
aI2209
aa(lp4415
S'admired'
p4416
aI2210
aa(lp4417
S'blessings'
p4418
aI2211
aa(lp4419
S'richly'
p4420
aI2212
aa(lp4421
S'compiled'
p4422
aI2213
aa(lp4423
S'phrase'
p4424
aI2214
aa(lp4425
S'muses'
p4426
aI2215
aa(lp4427
S'filed'
p4428
aI2216
aa(lp4429
S'unletter'
p4430
aI2217
aa(lp4431
S'clerk'
p4432
aI2218
aa(lp4433
S"'amen'"
p4434
aI2219
aa(lp4435
S'hymn'
p4436
aI2220
aa(lp4437
S'able'
p4438
aI2221
aa(lp4439
S'polish'
p4440
aI2222
aa(lp4441
S'refined'
p4442
aI2223
aa(lp4443
S'hearing'
p4444
aI2224
aa(lp4445
S"''tis"
p4446
aI2225
aa(lp4447
S'hindmost'
p4448
aI2226
aa(lp4449
S'ripe'
p4450
aI2227
aa(lp4451
S'extant'
p4452
aI2228
aa(lp4453
S'debt'
p4454
aI2229
aa(lp4455
S'wilfully'
p4456
aI2230
aa(lp4457
S'exceed'
p4458
aI2231
aa(lp4459
S'shallowest'
p4460
aI2232
aa(lp4461
S'afloat'
p4462
aI2233
aa(lp4463
S'soundless'
p4464
aI2234
aa(lp4465
S'wreck'
p4466
aI2235
aa(lp4467
S'boat'
p4468
aI2236
aa(lp4469
S'tall'
p4470
aI2237
aa(lp4471
S'building'
p4472
aI2238
aa(lp4473
S'goodly'
p4474
aI2239
aa(lp4475
S'epitaph'
p4476
aI2240
aa(lp4477
S'forgotten'
p4478
aI2241
aa(lp4479
S'immortal'
p4480
aI2242
aa(lp4481
S'entombed'
p4482
aI2243
aa(lp4483
S'breathers'
p4484
aI2244
aa(lp4485
S'breathes'
p4486
aI2245
aa(lp4487
S'mouths'
p4488
aI2246
aa(lp4489
S'attaint'
p4490
aI2247
aa(lp4491
S"o'erlook"
p4492
aI2248
aa(lp4493
S'dedicated'
p4494
aI2249
aa(lp4495
S'writers'
p4496
aI2250
aa(lp4497
S'blessing'
p4498
aI2251
aa(lp4499
S'limit'
p4500
aI2252
aa(lp4501
S'enforced'
p4502
aI2253
aa(lp4503
S'fresher'
p4504
aI2254
aa(lp4505
S'devised'
p4506
aI2255
aa(lp4507
S'strained'
p4508
aI2256
aa(lp4509
S'rhetoric'
p4510
aI2257
aa(lp4511
S'sympathized'
p4512
aI2258
aa(lp4513
S'plain'
p4514
aI2259
aa(lp4515
S'abused'
p4516
aI2260
aa(lp4517
S'smells'
p4518
aI2261
aa(lp4519
S'soft'
p4520
aI2262
aa(lp4521
S'remains'
p4522
aI2263
aa(lp4523
S'drinks'
p4524
aI2264
aa(lp4525
S'dove'
p4526
aI2265
aa(lp4527
S'shapes'
p4528
aI2266
aa(lp4529
S'feature'
p4530
aI2267
aa(lp4531
S'incapable'
p4532
aI2268
aa(lp4533
S'monarch'
p4534
aI2269
aa(lp4535
S'saith'
p4536
aI2270
aa(lp4537
S'monsters'
p4538
aI2271
aa(lp4539
S'indigest'
p4540
aI2272
aa(lp4541
S'cherubins'
p4542
aI2273
aa(lp4543
S'resemble'
p4544
aI2274
aa(lp4545
S'creating'
p4546
aI2275
aa(lp4547
S'beams'
p4548
aI2276
aa(lp4549
S'assemble'
p4550
aI2277
aa(lp4551
S'kingly'
p4552
aI2278
aa(lp4553
S'gust'
p4554
aI2279
aa(lp4555
S'dwells'
p4556
aI2280
aa(lp4557
S"'greeing"
p4558
aI2281
aa(lp4559
S'cup'
p4560
aI2282
aa(lp4561
S'lesser'
p4562
aI2283
aa(lp4563
S'begin'
p4564
aI2284
aa(lp4565
S'knew'
p4566
aI2285
aa(lp4567
S'deepest'
p4568
aI2286
aa(lp4569
S'afterwards'
p4570
aI2287
aa(lp4571
S'reckoning'
p4572
aI2288
aa(lp4573
S'million'
p4574
aI2289
aa(lp4575
S'accidents'
p4576
aI2290
aa(lp4577
S'creep'
p4578
aI2291
aa(lp4579
S'decrees'
p4580
aI2292
aa(lp4581
S'tan'
p4582
aI2293
aa(lp4583
S'intents'
p4584
aI2294
aa(lp4585
S'creature'
p4586
aI2295
aa(lp4587
S'deformed'
p4588
aI2296
aa(lp4589
S'gentlest'
p4590
aI2297
aa(lp4591
S'rudest'
p4592
aI2298
aa(lp4593
S'subdued'
p4594
aI2299
aa(lp4595
S'dyer'
p4596
aI2300
aa(lp4597
S'patient'
p4598
aI2301
aa(lp4599
S'eisel'
p4600
aI2302
aa(lp4601
S'penance'
p4602
aI2303
aa(lp4603
S'correct'
p4604
aI2304
aa(lp4605
S'correction'
p4606
aI2305
aa(lp4607
S'assure'
p4608
aI2306
aa(lp4609
S'impression'
p4610
aI2307
aa(lp4611
S'scandal'
p4612
aI2308
aa(lp4613
S'changes'
p4614
aI2309
aa(lp4615
S'profound'
p4616
aI2310
aa(lp4617
S'abysm'
p4618
aI2311
aa(lp4619
S'throw'
p4620
aI2312
aa(lp4621
S'voices'
p4622
aI2313
aa(lp4623
S'adder'
p4624
aI2314
aa(lp4625
S'critic'
p4626
aI2315
aa(lp4627
S'flatterer'
p4628
aI2316
aa(lp4629
S'stopped'
p4630
aI2317
aa(lp4631
S'dispense'
p4632
aI2318
aa(lp4633
S'governs'
p4634
aI2319
aa(lp4635
S'about'
p4636
aI2320
aa(lp4637
S'function'
p4638
aI2321
aa(lp4639
S'partly'
p4640
aI2322
aa(lp4641
S'effectually'
p4642
aI2323
aa(lp4643
S'delivers'
p4644
aI2324
aa(lp4645
S'bird'
p4646
aI2325
aa(lp4647
S'latch'
p4648
aI2326
aa(lp4649
S'vision'
p4650
aI2327
aa(lp4651
S'divert'
p4652
aI2328
aa(lp4653
S'altering'
p4654
aI2329
aa(lp4655
S'fearing'
p4656
aI2330
aa(lp4657
S'eager'
p4658
aI2331
aa(lp4659
S'sickness'
p4660
aI2332
aa(lp4661
S'purge'
p4662
aI2333
aa(lp4663
S'tuff'
p4664
aI2334
aa(lp4665
S'cloying'
p4666
aI2335
aa(lp4667
S'sauces'
p4668
aI2336
aa(lp4669
S'welfare'
p4670
aI2337
aa(lp4671
S'meetness'
p4672
aI2338
aa(lp4673
S'needing'
p4674
aI2339
aa(lp4675
S'anticipate'
p4676
aI2340
aa(lp4677
S'ills'
p4678
aI2341
aa(lp4679
S'medicine'
p4680
aI2342
aa(lp4681
S'cured'
p4682
aI2343
aa(lp4683
S'lesson'
p4684
aI2344
aa(lp4685
S'drugs'
p4686
aI2345
aa(lp4687
S'drunk'
p4688
aI2346
aa(lp4689
S'siren'
p4690
aI2347
aa(lp4691
S'limbecks'
p4692
aI2348
aa(lp4693
S'weigh'
p4694
aI2349
aa(lp4695
S'applying'
p4696
aI2350
aa(lp4697
S'committed'
p4698
aI2351
aa(lp4699
S'spheres'
p4700
aI2352
aa(lp4701
S'fitted'
p4702
aI2353
aa(lp4703
S'distraction'
p4704
aI2354
aa(lp4705
S'madding'
p4706
aI2355
aa(lp4707
S'rebuked'
p4708
aI2356
aa(lp4709
S'befriends'
p4710
aI2357
aa(lp4711
S'transgression'
p4712
aI2358
aa(lp4713
S'nerves'
p4714
aI2359
aa(lp4715
S'hammer'
p4716
aI2360
aa(lp4717
S'sicken'
p4718
aI2361
aa(lp4719
S'appetites'
p4720
aI2362
aa(lp4721
S'tyranny'
p4722
aI2363
aa(lp4723
S'appeal'
p4724
aI2364
aa(lp4725
S"'now"
p4726
aI2365
aa(lp4727
S'certain'
p4728
aI2366
aa(lp4729
S'incertainty'
p4730
aI2367
aa(lp4731
S'crowning'
p4732
aI2368
aa(lp4733
S'marriage'
p4734
aI2369
aa(lp4735
S'admit'
p4736
aI2370
aa(lp4737
S'impediments'
p4738
aI2371
aa(lp4739
S'alteration'
p4740
aI2372
aa(lp4741
S'bends'
p4742
aI2373
aa(lp4743
S'remover'
p4744
aI2374
aa(lp4745
S'fixed'
p4746
aI2375
aa(lp4747
S'tempests'
p4748
aI2376
aa(lp4749
S'wandering'
p4750
aI2377
aa(lp4751
S'rosy'
p4752
aI2378
aa(lp4753
S'suffered'
p4754
aI2379
aa(lp4755
S'compass'
p4756
aI2380
aa(lp4757
S'weeks'
p4758
aI2381
aa(lp4759
S'error'
p4760
aI2382
aa(lp4761
S'scanted'
p4762
aI2383
aa(lp4763
S'repay'
p4764
aI2384
aa(lp4765
S'frequent'
p4766
aI2385
aa(lp4767
S'purchased'
p4768
aI2386
aa(lp4769
S'hoisted'
p4770
aI2387
aa(lp4771
S'transport'
p4772
aI2388
aa(lp4773
S'wilfulness'
p4774
aI2389
aa(lp4775
S'surmise'
p4776
aI2390
aa(lp4777
S'accumulate'
p4778
aI2391
aa(lp4779
S'shoot'
p4780
aI2392
aa(lp4781
S'waken'
p4782
aI2393
aa(lp4783
S'breeds'
p4784
aI2394
aa(lp4785
S'provide'
p4786
aI2395
aa(lp4787
S'harmful'
p4788
aI2396
aa(lp4789
S'owner'
p4790
aI2397
aa(lp4791
S'wont'
p4792
aI2398
aa(lp4793
S'philomel'
p4794
aI2399
aa(lp4795
S'front'
p4796
aI2400
aa(lp4797
S'stops'
p4798
aI2401
aa(lp4799
S'pipe'
p4800
aI2402
aa(lp4801
S'pleasant'
p4802
aI2403
aa(lp4803
S'mournful'
p4804
aI2404
aa(lp4805
S'hush'
p4806
aI2405
aa(lp4807
S'wild'
p4808
aI2406
aa(lp4809
S'burthens'
p4810
aI2407
aa(lp4811
S'bough'
p4812
aI2408
aa(lp4813
S'beside'
p4814
aI2409
aa(lp4815
S'appears'
p4816
aI2410
aa(lp4817
S'dulling'
p4818
aI2411
aa(lp4819
S'striving'
p4820
aI2412
aa(lp4821
S'mar'
p4822
aI2413
aa(lp4823
S'verses'
p4824
aI2414
aa(lp4825
S'gifts'
p4826
aI2415
aa(lp4827
S'eyed'
p4828
aI2416
aa(lp4829
S'hard'
p4830
aI2417
aa(lp4831
S'forests'
p4832
aI2418
aa(lp4833
S'shook'
p4834
aI2419
aa(lp4835
S"summers'"
p4836
aI2420
aa(lp4837
S'springs'
p4838
aI2421
aa(lp4839
S'process'
p4840
aI2422
aa(lp4841
S'junes'
p4842
aI2423
aa(lp4843
S'figure'
p4844
aI2424
aa(lp4845
S'perceived'
p4846
aI2425
aa(lp4847
S'unbred'
p4848
aI2426
aa(lp4849
S'publish'
p4850
aI2427
aa(lp4851
S'esteeming'
p4852
aI2428
aa(lp4853
S'idol'
p4854
aI2429
aa(lp4855
S'merchandized'
p4856
aI2430
aa(lp4857
S'grossly'
p4858
aI2431
aa(lp4859
S'condemned'
p4860
aI2432
aa(lp4861
S'marjoram'
p4862
aI2433
aa(lp4863
S'hair'
p4864
aI2434
aa(lp4865
S'fearfully'
p4866
aI2435
aa(lp4867
S'third'
p4868
aI2436
aa(lp4869
S'annex'
p4870
aI2437
aa(lp4871
S'theft'
p4872
aI2438
aa(lp4873
S'vengeful'
p4874
aI2439
aa(lp4875
S'fury'
p4876
aI2440
aa(lp4877
S'darkening'
p4878
aI2441
aa(lp4879
S'forgetful'
p4880
aI2442
aa(lp4881
S'redeem'
p4882
aI2443
aa(lp4883
S'idly'
p4884
aI2444
aa(lp4885
S'resty'
p4886
aI2445
aa(lp4887
S'wrinkle'
p4888
aI2446
aa(lp4889
S'graven'
p4890
aI2447
aa(lp4891
S'satire'
p4892
aI2448
aa(lp4893
S'spoils'
p4894
aI2449
aa(lp4895
S'faster'
p4896
aI2450
aa(lp4897
S'truant'
p4898
aI2451
aa(lp4899
S'amends'
p4900
aI2452
aa(lp4901
S'dignified'
p4902
aI2453
aa(lp4903
S"'truth"
p4904
aI2454
aa(lp4905
S'intermix'
p4906
aI2455
aa(lp4907
S"for't"
p4908
aI2456
aa(lp4909
S'ages'
p4910
aI2457
aa(lp4911
S'office'
p4912
aI2458
aa(lp4913
S'strengthen'
p4914
aI2459
aa(lp4915
S'idolatry'
p4916
aI2460
aa(lp4917
S'alike'
p4918
aI2461
aa(lp4919
S'older'
p4920
aI2462
aa(lp4921
S"tyrants'"
p4922
aI2463
aa(lp4923
S'tombs'
p4924
aI2464
aa(lp4925
S'figured'
p4926
aI2465
aa(lp4927
S'register'
p4928
aI2466
aa(lp4929
S'prayers'
p4930
aI2467
aa(lp4931
S'hallow'
p4932
aI2468
aa(lp4933
S'case'
p4934
aI2469
aa(lp4935
S'weighs'
p4936
aI2470
aa(lp4937
S'necessary'
p4938
aI2471
aa(lp4939
S'aye'
p4940
aI2472
aa(lp4941
S'page'
p4942
aI2473
aa(lp4943
S'qualify'
p4944
aI2474
aa(lp4945
S'easy'
p4946
aI2475
aa(lp4947
S'ranged'
p4948
aI2476
aa(lp4949
S'travels'
p4950
aI2477
aa(lp4951
S'exchanged'
p4952
aI2478
aa(lp4953
S'besiege'
p4954
aI2479
aa(lp4955
S'kinds'
p4956
aI2480
aa(lp4957
S'preposterously'
p4958
aI2481
aa(lp4959
S'universe'
p4960
aI2482
aa(lp4961
S'motley'
p4962
aI2483
aa(lp4963
S'gored'
p4964
aI2484
aa(lp4965
S'sold'
p4966
aI2485
aa(lp4967
S'cheap'
p4968
aI2486
aa(lp4969
S'offences'
p4970
aI2487
aa(lp4971
S'affections'
p4972
aI2488
aa(lp4973
S'askance'
p4974
aI2489
aa(lp4975
S'blenches'
p4976
aI2490
aa(lp4977
S'essays'
p4978
aI2491
aa(lp4979
S'grind'
p4980
aI2492
aa(lp4981
S'crests'
p4982
aI2493
aa(lp4983
S'tribes'
p4984
aI2494
aa(lp4985
S'songs'
p4986
aI2495
aa(lp4987
S'insults'
p4988
aI2496
aa(lp4989
S'expressing'
p4990
aI2497
aa(lp4991
S'difference'
p4992
aI2498
aa(lp4993
S'varying'
p4994
aI2499
aa(lp4995
S'themes'
p4996
aI2500
aa(lp4997
S'chronicle'
p4998
aI2501
aa(lp4999
S'wasted'
p5000
aI2502
aa(lp5001
S'descriptions'
p5002
aI2503
aa(lp5003
S'wights'
p5004
aI2504
aa(lp5005
S'beautiful'
p5006
aI2505
aa(lp5007
S'ladies'
p5008
aI2506
aa(lp5009
S'knights'
p5010
aI2507
aa(lp5011
S'blazon'
p5012
aI2508
aa(lp5013
S'lip'
p5014
aI2509
aa(lp5015
S'prophecies'
p5016
aI2510
aa(lp5017
S'prefiguring'
p5018
aI2511
aa(lp5019
S'divining'
p5020
aI2512
aa(lp5021
S'prophetic'
p5022
aI2513
aa(lp5023
S'dreaming'
p5024
aI2514
aa(lp5025
S'eclipse'
p5026
aI2515
aa(lp5027
S'endured'
p5028
aI2516
aa(lp5029
S'augurs'
p5030
aI2517
aa(lp5031
S'presage'
p5032
aI2518
aa(lp5033
S'incertainties'
p5034
aI2519
aa(lp5035
S'proclaims'
p5036
aI2520
aa(lp5037
S'olives'
p5038
aI2521
aa(lp5039
S'endless'
p5040
aI2522
aa(lp5041
S'drops'
p5042
aI2523
aa(lp5043
S'balmy'
p5044
aI2524
aa(lp5045
S'subscribes'
p5046
aI2525
aa(lp5047
S'food'
p5048
aI2526
aa(lp5049
S'contains'
p5050
aI2527
aa(lp5051
S'cancell'
p5052
aI2528
aa(lp5053
S'wherever'
p5054
aI2529
aa(lp5055
S'subsist'
p5056
aI2530
aa(lp5057
S'distance'
p5058
aI2531
aa(lp5059
S'space'
p5060
aI2532
aa(lp5061
S'limits'
p5062
aI2533
aa(lp5063
S'remote'
p5064
aI2534
aa(lp5065
S'jump'
p5066
aI2535
aa(lp5067
S'land'
p5068
aI2536
aa(lp5069
S'kills'
p5070
aI2537
aa(lp5071
S'lengths'
p5072
aI2538
aa(lp5073
S'attend'
p5074
aI2539
aa(lp5075
S'receiving'
p5076
aI2540
aa(lp5077
S'badges'
p5078
aI2541
aa(lp5079
S'purging'
p5080
aI2542
aa(lp5081
S'faculty'
p5082
aI2543
aa(lp5083
S'beyond'
p5084
aI2544
aa(lp5085
S'fiery'
p5086
aI2545
aa(lp5087
S'slide'
p5088
aI2546
aa(lp5089
S'quicker'
p5090
aI2547
aa(lp5091
S'embassy'
p5092
aI2548
aa(lp5093
S'four'
p5094
aI2549
aa(lp5095
S'sinks'
p5096
aI2550
aa(lp5097
S'melancholy'
p5098
aI2551
aa(lp5099
S'until'
p5100
aI2552
aa(lp5101
S'composition'
p5102
aI2553
aa(lp5103
S'recured'
p5104
aI2554
aa(lp5105
S'messengers'
p5106
aI2555
aa(lp5107
S'recounting'
p5108
aI2556
aa(lp5109
S'lasting'
p5110
aI2557
aa(lp5111
S'divide'
p5112
aI2558
aa(lp5113
S'bar'
p5114
aI2559
aa(lp5115
S'oblivion'
p5116
aI2560
aa(lp5117
S'miss'
p5118
aI2561
aa(lp5119
S'imperfect'
p5120
aI2562
aa(lp5121
S'unseeing'
p5122
aI2563
aa(lp5123
S'yea'
p5124
aI2564
aa(lp5125
S'deceivest'
p5126
aI2565
aa(lp5127
S'refusest'
p5128
aI2566
aa(lp5129
S'forgive'
p5130
aI2567
aa(lp5131
S'known'
p5132
aI2568
aa(lp5133
S'spites'
p5134
aI2569
aa(lp5135
S'befits'
p5136
aI2570
aa(lp5137
S'follows'
p5138
aI2571
aa(lp5139
S'won'
p5140
aI2572
aa(lp5141
S'assailed'
p5142
aI2573
aa(lp5143
S'woos'
p5144
aI2574
aa(lp5145
S'prevailed'
p5146
aI2575
aa(lp5147
S'mightest'
p5148
aI2576
aa(lp5149
S'straying'
p5150
aI2577
aa(lp5151
S'riot'
p5152
aI2578
aa(lp5153
S'forced'
p5154
aI2579
aa(lp5155
S'twofold'
p5156
aI2580
aa(lp5157
S'hers'
p5158
aI2581
aa(lp5159
S'tempting'
p5160
aI2582
aa(lp5161
S'dearly'
p5162
aI2583
aa(lp5163
S'wailing'
p5164
aI2584
aa(lp5165
S'nearly'
p5166
aI2585
aa(lp5167
S'offenders'
p5168
aI2586
aa(lp5169
S'knowst'
p5170
aI2587
aa(lp5171
S'tallies'
p5172
aI2588
aa(lp5173
S'suffering'
p5174
aI2589
aa(lp5175
S'retention'
p5176
aI2590
aa(lp5177
S'darkly'
p5178
aI2591
aa(lp5179
S'directed'
p5180
aI2592
aa(lp5181
S'freedom'
p5182
aI2593
aa(lp5183
S'closet'
p5184
aI2594
aa(lp5185
S'pierced'
p5186
aI2595
aa(lp5187
S'defects'
p5188
aI2596
aa(lp5189
S'advised'
p5190
aI2597
aa(lp5191
S'respects'
p5192
aI2598
aa(lp5193
S'scarcely'
p5194
aI2599
aa(lp5195
S'settled'
p5196
aI2600
aa(lp5197
S'gravity'
p5198
aI2601
aa(lp5199
S'ensconce'
p5200
aI2602
aa(lp5201
S'uprear'
p5202
aI2603
aa(lp5203
S'laws'
p5204
aI2604
aa(lp5205
S'allege'
p5206
aI2605
aa(lp5207
S"'thus"
p5208
aI2606
aa(lp5209
S'measured'
p5210
aI2607
aa(lp5211
S'plods'
p5212
aI2608
aa(lp5213
S'dully'
p5214
aI2609
aa(lp5215
S'weight'
p5216
aI2610
aa(lp5217
S'instinct'
p5218
aI2611
aa(lp5219
S'rider'
p5220
aI2612
aa(lp5221
S'provoke'
p5222
aI2613
aa(lp5223
S'sometimes'
p5224
aI2614
aa(lp5225
S'anger'
p5226
aI2615
aa(lp5227
S'thrusts'
p5228
aI2616
aa(lp5229
S'answers'
p5230
aI2617
aa(lp5231
S'spurring'
p5232
aI2618
aa(lp5233
S'onward'
p5234
aI2619
aa(lp5235
S'bearer'
p5236
aI2620
aa(lp5237
S'posting'
p5238
aI2621
aa(lp5239
S'fed'
p5240
aI2622
aa(lp5241
S'extremity'
p5242
aI2623
aa(lp5243
S'mounted'
p5244
aI2624
aa(lp5245
S'winged'
p5246
aI2625
aa(lp5247
S'utmost'
p5248
aI2626
aa(lp5249
S'proves'
p5250
aI2627
aa(lp5251
S'crystal'
p5252
aI2628
aa(lp5253
S'maintain'
p5254
aI2629
aa(lp5255
S'defendant'
p5256
aI2630
aa(lp5257
S'appearance'
p5258
aI2631
aa(lp5259
S"'cide"
p5260
aI2632
aa(lp5261
S'impanneled'
p5262
aI2633
aa(lp5263
S'tenants'
p5264
aI2634
aa(lp5265
S'verdict'
p5266
aI2635
aa(lp5267
S'determined'
p5268
aI2636
aa(lp5269
S'moiety'
p5270
aI2637
aa(lp5271
S'betwixt'
p5272
aI2638
aa(lp5273
S'league'
p5274
aI2639
aa(lp5275
S'unto'
p5276
aI2640
aa(lp5277
S'famish'
p5278
aI2641
aa(lp5279
S'sighs'
p5280
aI2642
aa(lp5281
S'smother'
p5282
aI2643
aa(lp5283
S'banquet'
p5284
aI2644
aa(lp5285
S'bids'
p5286
aI2645
aa(lp5287
S'share'
p5288
aI2646
aa(lp5289
S'resent'
p5290
aI2647
aa(lp5291
S'move'
p5292
aI2648
aa(lp5293
S'awakes'
p5294
aI2649
aa(lp5295
S'trifle'
p5296
aI2650
aa(lp5297
S'truest'
p5298
aI2651
aa(lp5299
S'thrust'
p5300
aI2652
aa(lp5301
S'wards'
p5302
aI2653
aa(lp5303
S'trifles'
p5304
aI2654
aa(lp5305
S'greatest'
p5306
aI2655
aa(lp5307
S'badness'
p5308
aI2656
aa(lp5309
S'lock'
p5310
aI2657
aa(lp5311
S'closure'
p5312
aI2658
aa(lp5313
S'teachest'
p5314
aI2659
aa(lp5315
S'entertain'
p5316
aI2660
aa(lp5317
S'deservest'
p5318
aI2661
aa(lp5319
S'smiling'
p5320
aI2662
aa(lp5321
S'glorious'
p5322
aI2663
aa(lp5323
S'accident'
p5324
aI2664
aa(lp5325
S'tops'
p5326
aI2665
aa(lp5327
S'kissing'
p5328
aI2666
aa(lp5329
S'meadows'
p5330
aI2667
aa(lp5331
S'streams'
p5332
aI2668
aa(lp5333
S'permit'
p5334
aI2669
aa(lp5335
S'ugly'
p5336
aI2670
aa(lp5337
S'rack'
p5338
aI2671
aa(lp5339
S'celestial'
p5340
aI2672
aa(lp5341
S'forlorn'
p5342
aI2673
aa(lp5343
S'visage'
p5344
aI2674
aa(lp5345
S'early'
p5346
aI2675
aa(lp5347
S'splendor'
p5348
aI2676
aa(lp5349
S'region'
p5350
aI2677
aa(lp5351
S'whit'
p5352
aI2678
aa(lp5353
S'disdaineth'
p5354
aI2679
aa(lp5355
S'suns'
p5356
aI2680
aa(lp5357
S'staineth'
p5358
aI2681
aa(lp5359
S'promise'
p5360
aI2682
aa(lp5361
S'builded'
p5362
aI2683
aa(lp5363
S'cloak'
p5364
aI2684
aa(lp5365
S"o'ertake"
p5366
aI2685
aa(lp5367
S'hiding'
p5368
aI2686
aa(lp5369
S'bravery'
p5370
aI2687
aa(lp5371
S'smoke'
p5372
aI2688
aa(lp5373
S'gather'
p5374
aI2689
aa(lp5375
S'dry'
p5376
aI2690
aa(lp5377
S'storm'
p5378
aI2691
aa(lp5379
S'suffers'
p5380
aI2692
aa(lp5381
S'equipage'
p5382
aI2693
aa(lp5383
S'salve'
p5384
aI2694
aa(lp5385
S'pomp'
p5386
aI2695
aa(lp5387
S'leases'
p5388
aI2696
aa(lp5389
S'grieve'
p5390
aI2697
aa(lp5391
S'grievances'
p5392
aI2698
aa(lp5393
S'foregone'
p5394
aI2699
aa(lp5395
S'heretic'
p5396
aI2700
aa(lp5397
S'fore'
p5398
aI2701
aa(lp5399
S'bemoaned'
p5400
aI2702
aa(lp5401
S'paid'
p5402
aI2703
aa(lp5403
S'inviting'
p5404
aI2704
aa(lp5405
S'thralled'
p5406
aI2705
aa(lp5407
S'losses'
p5408
aI2706
aa(lp5409
S'restored'
p5410
aI2707
aa(lp5411
S'endeared'
p5412
aI2708
aa(lp5413
S'lacking'
p5414
aI2709
aa(lp5415
S'blow'
p5416
aI2710
aa(lp5417
S'reigns'
p5418
aI2711
aa(lp5419
S'tear'
p5420
aI2712
aa(lp5421
S'religious'
p5422
aI2713
aa(lp5423
S'hidden'
p5424
aI2714
aa(lp5425
S'falls'
p5426
aI2715
aa(lp5427
S'trophies'
p5428
aI2716
aa(lp5429
S'images'
p5430
aI2717
aa(lp5431
S'bones'
p5432
aI2718
aa(lp5433
S're'
p5434
aI2719
aa(lp5435
S'outstripp'
p5436
aI2720
aa(lp5437
S'exceeded'
p5438
aI2721
aa(lp5439
S"'had"
p5440
aI2722
aa(lp5441
S'march'
p5442
aI2723
aa(lp5443
S'ranks'
p5444
aI2724
aa(lp5445
S'beaten'
p5446
aI2725
aa(lp5447
S"'d'"
p5448
aI2726
aa(lp5449
S'separation'
p5450
aI2727
aa(lp5451
S'dates'
p5452
aI2728
aa(lp5453
S'separable'
p5454
aI2729
aa(lp5455
S'sole'
p5456
aI2730
aa(lp5457
S'dressings'
p5458
aI2731
aa(lp5459
S'novel'
p5460
aI2732
aa(lp5461
S'acknowledge'
p5462
aI2733
aa(lp5463
S'pyramids'
p5464
aI2734
aa(lp5465
S'bewailed'
p5466
aI2735
aa(lp5467
S'guilt'
p5468
aI2736
aa(lp5469
S'forgetfulness'
p5470
aI2737
aa(lp5471
S'import'
p5472
aI2738
aa(lp5473
S'decrepit'
p5474
aI2739
aa(lp5475
S'active'
p5476
aI2740
aa(lp5477
S'receive'
p5478
aI2741
aa(lp5479
S'entitled'
p5480
aI2742
aa(lp5481
S'crowned'
p5482
aI2743
aa(lp5483
S'engrafted'
p5484
aI2744
aa(lp5485
S'sufficed'
p5486
aI2745
aa(lp5487
S'pour'
p5488
aI2746
aa(lp5489
S'excellent'
p5490
aI2747
aa(lp5491
S'paper'
p5492
aI2748
aa(lp5493
S'thanks'
p5494
aI2749
aa(lp5495
S'perusal'
p5496
aI2750
aa(lp5497
S'score'
p5498
aI2751
aa(lp5499
S'tenth'
p5500
aI2752
aa(lp5501
S'nine'
p5502
aI2753
aa(lp5503
S'rhymers'
p5504
aI2754
aa(lp5505
S'invocate'
p5506
aI2755
aa(lp5507
S'curious'
p5508
aI2756
aa(lp5509
S'divided'
p5510
aI2757
aa(lp5511
S'blots'
p5512
aI2758
aa(lp5513
S'undivided'
p5514
aI2759
aa(lp5515
S'heals'
p5516
aI2760
aa(lp5517
S'admire'
p5518
aI2761
aa(lp5519
S'cures'
p5520
aI2762
aa(lp5521
S'repent'
p5522
aI2763
aa(lp5523
S'continual'
p5524
aI2764
aa(lp5525
S'offender'
p5526
aI2765
aa(lp5527
S'relief'
p5528
aI2766
aa(lp5529
S'pearl'
p5530
aI2767
aa(lp5531
S'sheds'
p5532
aI2768
aa(lp5533
S'records'
p5534
aI2769
aa(lp5535
S'grieved'
p5536
aI2770
aa(lp5537
S'wondering'
p5538
aI2771
aa(lp5539
S'fountains'
p5540
aI2772
aa(lp5541
S'mud'
p5542
aI2773
aa(lp5543
S'eclipses'
p5544
aI2774
aa(lp5545
S'defy'
p5546
aI2775
aa(lp5547
S'loathsome'
p5548
aI2776
aa(lp5549
S'registers'
p5550
aI2777
aa(lp5551
S'authorizing'
p5552
aI2778
aa(lp5553
S'corrupting'
p5554
aI2779
aa(lp5555
S'salving'
p5556
aI2780
aa(lp5557
S'excusing'
p5558
aI2781
aa(lp5559
S'heard'
p5560
aI2782
aa(lp5561
S'adverse'
p5562
aI2783
aa(lp5563
S'party'
p5564
aI2784
aa(lp5565
S'advocate'
p5566
aI2785
aa(lp5567
S'commence'
p5568
aI2786
aa(lp5569
S'civil'
p5570
aI2787
aa(lp5571
S'accessary'
p5572
aI2788
aa(lp5573
S'rather'
p5574
aI2789
aa(lp5575
S'foist'
p5576
aI2790
aa(lp5577
S'neigh'
p5578
aI2791
aa(lp5579
S'race'
p5580
aI2792
aa(lp5581
S'remembered'
p5582
aI2793
aa(lp5583
S'wrongfully'
p5584
aI2794
aa(lp5585
S'spoil'
p5586
aI2795
aa(lp5587
S'miracle'
p5588
aI2796
aa(lp5589
S'restful'
p5590
aI2797
aa(lp5591
S'needy'
p5592
aI2798
aa(lp5593
S'trimm'
p5594
aI2799
aa(lp5595
S'jollity'
p5596
aI2800
aa(lp5597
S'purest'
p5598
aI2801
aa(lp5599
S'unhappily'
p5600
aI2802
aa(lp5601
S'guilded'
p5602
aI2803
aa(lp5603
S'shamefully'
p5604
aI2804
aa(lp5605
S'misplaced'
p5606
aI2805
aa(lp5607
S'rudely'
p5608
aI2806
aa(lp5609
S'strumpeted'
p5610
aI2807
aa(lp5611
S'perfection'
p5612
aI2808
aa(lp5613
S'disgraced'
p5614
aI2809
aa(lp5615
S'jade'
p5616
aI2810
aa(lp5617
S'limping'
p5618
aI2811
aa(lp5619
S'disabled'
p5620
aI2812
aa(lp5621
S'authority'
p5622
aI2813
aa(lp5623
S'doctor'
p5624
aI2814
aa(lp5625
S'miscall'
p5626
aI2815
aa(lp5627
S'simplicity'
p5628
aI2816
aa(lp5629
S'captive'
p5630
aI2817
aa(lp5631
S'impiety'
p5632
aI2818
aa(lp5633
S'achieve'
p5634
aI2819
aa(lp5635
S'lace'
p5636
aI2820
aa(lp5637
S'society'
p5638
aI2821
aa(lp5639
S'imitate'
p5640
aI2822
aa(lp5641
S'indirectly'
p5642
aI2823
aa(lp5643
S'bankrupt'
p5644
aI2824
aa(lp5645
S'meditation'
p5646
aI2825
aa(lp5647
S'fearful'
p5648
aI2826
aa(lp5649
S'decays'
p5650
aI2827
aa(lp5651
S'gates'
p5652
aI2828
aa(lp5653
S'travell'
p5654
aI2829
aa(lp5655
S'steepy'
p5656
aI2830
aa(lp5657
S'vanishing'
p5658
aI2831
aa(lp5659
S'confounding'
p5660
aI2832
aa(lp5661
S'cut'
p5662
aI2833
aa(lp5663
S'defaced'
p5664
aI2834
aa(lp5665
S'towers'
p5666
aI2835
aa(lp5667
S'kingdom'
p5668
aI2836
aa(lp5669
S'firm'
p5670
aI2837
aa(lp5671
S'soil'
p5672
aI2838
aa(lp5673
S'watery'
p5674
aI2839
aa(lp5675
S'increasing'
p5676
aI2840
aa(lp5677
S'interchange'
p5678
aI2841
aa(lp5679
S'confounded'
p5680
aI2842
aa(lp5681
S'reproach'
p5682
aI2843
aa(lp5683
S'ruminate'
p5684
aI2844
aa(lp5685
S'choose'
p5686
aI2845
aa(lp5687
S'ransoms'
p5688
aI2846
aa(lp5689
S'boundless'
p5690
aI2847
aa(lp5691
S'mortality'
p5692
aI2848
aa(lp5693
S'sways'
p5694
aI2849
aa(lp5695
S'fee'
p5696
aI2850
aa(lp5697
S'honey'
p5698
aI2851
aa(lp5699
S'wreckful'
p5700
aI2852
aa(lp5701
S'siege'
p5702
aI2853
aa(lp5703
S'battering'
p5704
aI2854
aa(lp5705
S'rocks'
p5706
aI2855
aa(lp5707
S'impregnable'
p5708
aI2856
aa(lp5709
S'stout'
p5710
aI2857
aa(lp5711
S'blush'
p5712
aI2858
aa(lp5713
S'exchequer'
p5714
aI2859
aa(lp5715
S'gains'
p5716
aI2860
aa(lp5717
S'compounded'
p5718
aI2861
aa(lp5719
S'task'
p5720
aI2862
aa(lp5721
S'recite'
p5722
aI2863
aa(lp5723
S'willingly'
p5724
aI2864
aa(lp5725
S'impart'
p5726
aI2865
aa(lp5727
S'shamed'
p5728
aI2866
aa(lp5729
S'few'
p5730
aI2867
aa(lp5731
S'boughs'
p5732
aI2868
aa(lp5733
S'choirs'
p5734
aI2869
aa(lp5735
S'late'
p5736
aI2870
aa(lp5737
S'sang'
p5738
aI2871
aa(lp5739
S'seest'
p5740
aI2872
aa(lp5741
S'twilight'
p5742
aI2873
aa(lp5743
S'sunset'
p5744
aI2874
aa(lp5745
S'fadeth'
p5746
aI2875
aa(lp5747
S'seals'
p5748
aI2876
aa(lp5749
S'glowing'
p5750
aI2877
aa(lp5751
S'ashes'
p5752
aI2878
aa(lp5753
S'expire'
p5754
aI2879
aa(lp5755
S'consumed'
p5756
aI2880
aa(lp5757
S'nourish'
p5758
aI2881
aa(lp5759
S'perceivest'
p5760
aI2882
aa(lp5761
S'arrest'
p5762
aI2883
aa(lp5763
S'carry'
p5764
aI2884
aa(lp5765
S'memorial'
p5766
aI2885
aa(lp5767
S'reviewest'
p5768
aI2886
aa(lp5769
S'review'
p5770
aI2887
aa(lp5771
S'consecrate'
p5772
aI2888
aa(lp5773
S'dregs'
p5774
aI2889
aa(lp5775
S'coward'
p5776
aI2890
aa(lp5777
S'clay'
p5778
aI2891
aa(lp5779
S'perhaps'
p5780
aI2892
aa(lp5781
S'stores'
p5782
aI2893
aa(lp5783
S'vilest'
p5784
aI2894
aa(lp5785
S'fits'
p5786
aI2895
aa(lp5787
S'signs'
p5788
aI2896
aa(lp5789
S'durst'
p5790
aI2897
aa(lp5791
S'inhabit'
p5792
aI2898
aa(lp5793
S'tresses'
p5794
aI2899
aa(lp5795
S'sepulchres'
p5796
aI2900
aa(lp5797
S'shorn'
p5798
aI2901
aa(lp5799
S'fleece'
p5800
aI2902
aa(lp5801
S'robbing'
p5802
aI2903
aa(lp5803
S'yore'
p5804
aI2904
aa(lp5805
S'voice'
p5806
aI2905
aa(lp5807
S'uttering'
p5808
aI2906
aa(lp5809
S'commend'
p5810
aI2907
aa(lp5811
S'accents'
p5812
aI2908
aa(lp5813
S'churls'
p5814
aI2909
aa(lp5815
S'matcheth'
p5816
aI2910
aa(lp5817
S'solve'
p5818
aI2911
aa(lp5819
S'vice'
p5820
aI2912
aa(lp5821
S'unstained'
p5822
aI2913
aa(lp5823
S'ambush'
p5824
aI2914
aa(lp5825
S'assail'
p5826
aI2915
aa(lp5827
S'victor'
p5828
aI2916
aa(lp5829
S'charged'
p5830
aI2917
aa(lp5831
S'enlarged'
p5832
aI2918
aa(lp5833
S'kingdoms'
p5834
aI2919
aa(lp5835
S'owe'
p5836
aI2920
aa(lp5837
S'surly'
p5838
aI2921
aa(lp5839
S'bell'
p5840
aI2922
aa(lp5841
S'warning'
p5842
aI2923
aa(lp5843
S'youthful'
p5844
aI2924
aa(lp5845
S'drain'
p5846
aI2925
aa(lp5847
S'worn'
p5848
aI2926
aa(lp5849
S'wantonly'
p5850
aI2927
aa(lp5851
S'masked'
p5852
aI2928
aa(lp5853
S'discloses'
p5854
aI2929
aa(lp5855
S'unwoo'
p5856
aI2930
aa(lp5857
S'odours'
p5858
aI2931
aa(lp5859
S'distills'
p5860
aI2932
aa(lp5861
S'marble'
p5862
aI2933
aa(lp5863
S'monuments'
p5864
aI2934
aa(lp5865
S'contents'
p5866
aI2935
aa(lp5867
S'unswept'
p5868
aI2936
aa(lp5869
S'besmear'
p5870
aI2937
aa(lp5871
S'sluttish'
p5872
aI2938
aa(lp5873
S'wasteful'
p5874
aI2939
aa(lp5875
S'statues'
p5876
aI2940
aa(lp5877
S'overturn'
p5878
aI2941
aa(lp5879
S'broils'
p5880
aI2942
aa(lp5881
S'masonry'
p5882
aI2943
aa(lp5883
S'mars'
p5884
aI2944
aa(lp5885
S'sword'
p5886
aI2945
aa(lp5887
S'oblivious'
p5888
aI2946
aa(lp5889
S'enmity'
p5890
aI2947
aa(lp5891
S'room'
p5892
aI2948
aa(lp5893
S'ending'
p5894
aI2949
aa(lp5895
S'arise'
p5896
aI2950
aa(lp5897
S'blunter'
p5898
aI2951
aa(lp5899
S'allay'
p5900
aI2952
aa(lp5901
S'sharpen'
p5902
aI2953
aa(lp5903
S'fullness'
p5904
aI2954
aa(lp5905
S'spies'
p5906
aI2955
aa(lp5907
S'dullness'
p5908
aI2956
aa(lp5909
S'abuses'
p5910
aI2957
aa(lp5911
S'tincture'
p5912
aI2958
aa(lp5913
S'banks'
p5914
aI2959
aa(lp5915
S'perfumed'
p5916
aI2960
aa(lp5917
S'went'
p5918
aI2961
aa(lp5919
S'run'
p5920
aI2962
aa(lp5921
S'key'
p5922
aI2963
aa(lp5923
S'locked'
p5924
aI2964
aa(lp5925
S'blunting'
p5926
aI2965
aa(lp5927
S'feasts'
p5928
aI2966
aa(lp5929
S'solemn'
p5930
aI2967
aa(lp5931
S'bevel'
p5932
aI2968
aa(lp5933
S'stones'
p5934
aI2969
aa(lp5935
S'thinly'
p5936
aI2970
aa(lp5937
S'placed'
p5938
aI2971
aa(lp5939
S'carcanet'
p5940
aI2972
aa(lp5941
S'wardrobe'
p5942
aI2973
aa(lp5943
S'robe'
p5944
aI2974
aa(lp5945
S'instant'
p5946
aI2975
aa(lp5947
S'unfolding'
p5948
aI2976
aa(lp5949
S'worthiness'
p5950
aI2977
aa(lp5951
S'millions'
p5952
aI2978
aa(lp5953
S'describe'
p5954
aI2979
aa(lp5955
S'adonis'
p5956
aI2980
aa(lp5957
S'poorly'
p5958
aI2981
aa(lp5959
S'imitated'
p5960
aI2982
aa(lp5961
S'helen'
p5962
aI2983
aa(lp5963
S'grecian'
p5964
aI2984
aa(lp5965
S'tires'
p5966
aI2985
aa(lp5967
S'foison'
p5968
aI2986
aa(lp5969
S'external'
p5970
aI2987
aa(lp5971
S'blooms'
p5972
aI2988
aa(lp5973
S'dye'
p5974
aI2989
aa(lp5975
S'interim'
p5976
aI2990
aa(lp5977
S'frailer'
p5978
aI2991
aa(lp5979
S'crush'
p5980
aI2992
aa(lp5981
S'nativity'
p5982
aI2993
aa(lp5983
S'maturity'
p5984
aI2994
aa(lp5985
S'wherewith'
p5986
aI2995
aa(lp5987
S'elipses'
p5988
aI2996
aa(lp5989
S'transfix'
p5990
aI2997
aa(lp5991
S'flourish'
p5992
aI2998
aa(lp5993
S'delves'
p5994
aI2999
aa(lp5995
S'parallels'
p5996
aI3000
aa(lp5997
S'rarities'
p5998
aI3001
aa(lp5999
S'mow'
p6000
aI3002
aa(lp6001
S'slumbers'
p6002
aI3003
aa(lp6003
S'broken'
p6004
aI3004
aa(lp6005
S'pry'
p6006
aI3005
aa(lp6007
S'tenor'
p6008
aI3006
aa(lp6009
S'jealousy'
p6010
aI3007
aa(lp6011
S'awake'
p6012
aI3008
aa(lp6013
S'defeat'
p6014
aI3009
aa(lp6015
S'watchman'
p6016
aI3010
aa(lp6017
S'wake'
p6018
aI3011
aa(lp6019
S'adulterate'
p6020
aI3012
aa(lp6021
S'possesseth'
p6022
aI3013
aa(lp6023
S'define'
p6024
aI3014
aa(lp6025
S'worths'
p6026
aI3015
aa(lp6027
S'surmount'
p6028
aI3016
aa(lp6029
S'indeed'
p6030
aI3017
aa(lp6031
S'beated'
p6032
aI3018
aa(lp6033
S'chopp'
p6034
aI3019
aa(lp6035
S'tann'
p6036
aI3020
aa(lp6037
S'contrary'
p6038
aI3021
aa(lp6039
S'iniquity'
p6040
aI3022
aa(lp6041
S'crawls'
p6042
aI3023
aa(lp6043
S'contend'
p6044
aI3024
aa(lp6045
S'services'
p6046
aI3025
aa(lp6047
S'forwards'
p6048
aI3026
aa(lp6049
S'require'
p6050
aI3027
aa(lp6051
S'bid'
p6052
aI3028
aa(lp6053
S'adieu'
p6054
aI3029
aa(lp6055
S'jealous'
p6056
aI3030
aa(lp6057
S'suppose'
p6058
aI3031
aa(lp6059
S'crave'
p6060
aI3032
aa(lp6061
S'beck'
p6062
aI3033
aa(lp6063
S'tame'
p6064
aI3034
aa(lp6065
S'sufferance'
p6066
aI3035
aa(lp6067
S'accusing'
p6068
aI3036
aa(lp6069
S'list'
p6070
aI3037
aa(lp6071
S'pardon'
p6072
aI3038
aa(lp6073
S'waiting'
p6074
aI3039
aa(lp6075
S'sportive'
p6076
aI3040
aa(lp6077
S'salutation'
p6078
aI3041
aa(lp6079
S'brains'
p6080
aI3042
aa(lp6081
S'beguiled'
p6082
aI3043
aa(lp6083
S'labouring'
p6084
aI3044
aa(lp6085
S'backward'
p6086
aI3045
aa(lp6087
S'hundred'
p6088
aI3046
aa(lp6089
S'courses'
p6090
aI3047
aa(lp6091
S'composed'
p6092
aI3048
aa(lp6093
S'mended'
p6094
aI3049
aa(lp6095
S'revolution'
p6096
aI3050
aa(lp6097
S'admiring'
p6098
aI3051
aa(lp6099
S'waves'
p6100
aI3052
aa(lp6101
S'pebbled'
p6102
aI3053
aa(lp6103
S'hasten'
p6104
aI3054
aa(lp6105
S'sequent'
p6106
aI3055
aa(lp6107
S'dying'
p6108
aI3056
aatRp6109
.